                                      1 ;--------------------------------------------------------
                                      2 ; File Created by SDCC : free open source ANSI-C Compiler
                                      3 ; Version 3.8.0 #10562 (Mac OS X x86_64)
                                      4 ;--------------------------------------------------------
                                      5 	.module ILI9341
                                      6 	.optsdcc -mstm8
                                      7 	
                                      8 ;--------------------------------------------------------
                                      9 ; Public variables in this module
                                     10 ;--------------------------------------------------------
                                     11 	.globl _delay
                                     12 	.globl _SPI_GetFlagStatus
                                     13 	.globl _SPI_SendData
                                     14 	.globl _GPIO_WriteLow
                                     15 	.globl _GPIO_WriteHigh
                                     16 	.globl _GPIO_Init
                                     17 	.globl _ILI9341_setup
                                     18 	.globl _ILI9341_Write_Command
                                     19 	.globl _ILI9341_Write_Data
                                     20 	.globl _ILI9341_Init_Display
                                     21 ;--------------------------------------------------------
                                     22 ; ram data
                                     23 ;--------------------------------------------------------
                                     24 	.area DATA
                                     25 ;--------------------------------------------------------
                                     26 ; ram data
                                     27 ;--------------------------------------------------------
                                     28 	.area INITIALIZED
                                     29 ;--------------------------------------------------------
                                     30 ; absolute external ram data
                                     31 ;--------------------------------------------------------
                                     32 	.area DABS (ABS)
                                     33 
                                     34 ; default segment ordering for linker
                                     35 	.area HOME
                                     36 	.area GSINIT
                                     37 	.area GSFINAL
                                     38 	.area CONST
                                     39 	.area INITIALIZER
                                     40 	.area CODE
                                     41 
                                     42 ;--------------------------------------------------------
                                     43 ; global & static initialisations
                                     44 ;--------------------------------------------------------
                                     45 	.area HOME
                                     46 	.area GSINIT
                                     47 	.area GSFINAL
                                     48 	.area GSINIT
                                     49 ;--------------------------------------------------------
                                     50 ; Home
                                     51 ;--------------------------------------------------------
                                     52 	.area HOME
                                     53 	.area HOME
                                     54 ;--------------------------------------------------------
                                     55 ; code
                                     56 ;--------------------------------------------------------
                                     57 	.area CODE
                                     58 ;	./Src/ILI9341.c: 5: void ILI9341_setup(void) {
                                     59 ; genLabel
                                     60 ;	-----------------------------------------
                                     61 ;	 function ILI9341_setup
                                     62 ;	-----------------------------------------
                                     63 ;	Register assignment is optimal.
                                     64 ;	Stack space usage: 0 bytes.
      008D93                         65 _ILI9341_setup:
                                     66 ;	./Src/ILI9341.c: 7: GPIO_Init(ILI9341_DS_Port, ILI9341_DS_PIN, GPIO_MODE_OUT_PP_LOW_FAST);
                                     67 ; genIPush
      008D93 4B E0            [ 1]   68 	push	#0xe0
                                     69 ; genIPush
      008D95 4B 10            [ 1]   70 	push	#0x10
                                     71 ; genIPush
      008D97 4B 05            [ 1]   72 	push	#0x05
      008D99 4B 50            [ 1]   73 	push	#0x50
                                     74 ; genCall
      008D9B CD 89 F3         [ 4]   75 	call	_GPIO_Init
      008D9E 5B 04            [ 2]   76 	addw	sp, #4
                                     77 ;	./Src/ILI9341.c: 8: GPIO_Init(ILI9341_CS_Port, ILI9341_CS_PIN, GPIO_MODE_OUT_PP_LOW_FAST);
                                     78 ; genIPush
      008DA0 4B E0            [ 1]   79 	push	#0xe0
                                     80 ; genIPush
      008DA2 4B 08            [ 1]   81 	push	#0x08
                                     82 ; genIPush
      008DA4 4B 0A            [ 1]   83 	push	#0x0a
      008DA6 4B 50            [ 1]   84 	push	#0x50
                                     85 ; genCall
      008DA8 CD 89 F3         [ 4]   86 	call	_GPIO_Init
      008DAB 5B 04            [ 2]   87 	addw	sp, #4
                                     88 ;	./Src/ILI9341.c: 9: GPIO_Init(ILI9341_Reset_Port, ILI9341_Reset_PIN, GPIO_MODE_OUT_PP_LOW_FAST);
                                     89 ; genIPush
      008DAD 4B E0            [ 1]   90 	push	#0xe0
                                     91 ; genIPush
      008DAF 4B 20            [ 1]   92 	push	#0x20
                                     93 ; genIPush
      008DB1 4B 05            [ 1]   94 	push	#0x05
      008DB3 4B 50            [ 1]   95 	push	#0x50
                                     96 ; genCall
      008DB5 CD 89 F3         [ 4]   97 	call	_GPIO_Init
      008DB8 5B 04            [ 2]   98 	addw	sp, #4
                                     99 ;	./Src/ILI9341.c: 10: GPIO_Init(ILI9341_CS_Port, ILI9341_CS_PIN, GPIO_MODE_OUT_PP_LOW_FAST);
                                    100 ; genIPush
      008DBA 4B E0            [ 1]  101 	push	#0xe0
                                    102 ; genIPush
      008DBC 4B 08            [ 1]  103 	push	#0x08
                                    104 ; genIPush
      008DBE 4B 0A            [ 1]  105 	push	#0x0a
      008DC0 4B 50            [ 1]  106 	push	#0x50
                                    107 ; genCall
      008DC2 CD 89 F3         [ 4]  108 	call	_GPIO_Init
      008DC5 5B 04            [ 2]  109 	addw	sp, #4
                                    110 ;	./Src/ILI9341.c: 11: GPIO_Init(ILI9341_LED_Port, ILI9341_LED_PIN, GPIO_MODE_OUT_PP_LOW_FAST);
                                    111 ; genIPush
      008DC7 4B E0            [ 1]  112 	push	#0xe0
                                    113 ; genIPush
      008DC9 4B 10            [ 1]  114 	push	#0x10
                                    115 ; genIPush
      008DCB 4B 0A            [ 1]  116 	push	#0x0a
      008DCD 4B 50            [ 1]  117 	push	#0x50
                                    118 ; genCall
      008DCF CD 89 F3         [ 4]  119 	call	_GPIO_Init
      008DD2 5B 04            [ 2]  120 	addw	sp, #4
                                    121 ; genLabel
      008DD4                        122 00101$:
                                    123 ;	./Src/ILI9341.c: 13: }
                                    124 ; genEndFunction
      008DD4 81               [ 4]  125 	ret
                                    126 ;	./Src/ILI9341.c: 15: void ILI9341_Write_Command(int command) {
                                    127 ; genLabel
                                    128 ;	-----------------------------------------
                                    129 ;	 function ILI9341_Write_Command
                                    130 ;	-----------------------------------------
                                    131 ;	Register assignment is optimal.
                                    132 ;	Stack space usage: 0 bytes.
      008DD5                        133 _ILI9341_Write_Command:
                                    134 ;	./Src/ILI9341.c: 16: while(SPI_GetFlagStatus(SPI_FLAG_BSY));
                                    135 ; genLabel
      008DD5                        136 00101$:
                                    137 ; genIPush
      008DD5 4B 80            [ 1]  138 	push	#0x80
                                    139 ; genCall
      008DD7 CD 8B EE         [ 4]  140 	call	_SPI_GetFlagStatus
      008DDA 5B 01            [ 2]  141 	addw	sp, #1
                                    142 ; genIfx
      008DDC 4D               [ 1]  143 	tnz	a
      008DDD 27 03            [ 1]  144 	jreq	00129$
      008DDF CC 8D D5         [ 2]  145 	jp	00101$
      008DE2                        146 00129$:
                                    147 ;	./Src/ILI9341.c: 17: GPIO_WriteLow(ILI9341_CS_Port, ILI9341_CS_PIN);
                                    148 ; genIPush
      008DE2 4B 08            [ 1]  149 	push	#0x08
                                    150 ; genIPush
      008DE4 4B 0A            [ 1]  151 	push	#0x0a
      008DE6 4B 50            [ 1]  152 	push	#0x50
                                    153 ; genCall
      008DE8 CD 8A 87         [ 4]  154 	call	_GPIO_WriteLow
      008DEB 5B 03            [ 2]  155 	addw	sp, #3
                                    156 ;	./Src/ILI9341.c: 18: GPIO_WriteLow(ILI9341_DS_Port, ILI9341_DS_PIN);
                                    157 ; genIPush
      008DED 4B 10            [ 1]  158 	push	#0x10
                                    159 ; genIPush
      008DEF 4B 05            [ 1]  160 	push	#0x05
      008DF1 4B 50            [ 1]  161 	push	#0x50
                                    162 ; genCall
      008DF3 CD 8A 87         [ 4]  163 	call	_GPIO_WriteLow
      008DF6 5B 03            [ 2]  164 	addw	sp, #3
                                    165 ;	./Src/ILI9341.c: 20: SPI_SendData(command);
                                    166 ; genCast
                                    167 ; genAssign
      008DF8 7B 04            [ 1]  168 	ld	a, (0x04, sp)
                                    169 ; genIPush
      008DFA 88               [ 1]  170 	push	a
                                    171 ; genCall
      008DFB CD 8B 70         [ 4]  172 	call	_SPI_SendData
      008DFE 84               [ 1]  173 	pop	a
                                    174 ;	./Src/ILI9341.c: 21: while(!SPI_GetFlagStatus(SPI_FLAG_TXE));
                                    175 ; genLabel
      008DFF                        176 00104$:
                                    177 ; genIPush
      008DFF 4B 02            [ 1]  178 	push	#0x02
                                    179 ; genCall
      008E01 CD 8B EE         [ 4]  180 	call	_SPI_GetFlagStatus
      008E04 5B 01            [ 2]  181 	addw	sp, #1
                                    182 ; genIfx
      008E06 4D               [ 1]  183 	tnz	a
      008E07 26 03            [ 1]  184 	jrne	00130$
      008E09 CC 8D FF         [ 2]  185 	jp	00104$
      008E0C                        186 00130$:
                                    187 ;	./Src/ILI9341.c: 23: GPIO_WriteHigh(ILI9341_CS_Port, ILI9341_CS_PIN);
                                    188 ; genIPush
      008E0C 4B 08            [ 1]  189 	push	#0x08
                                    190 ; genIPush
      008E0E 4B 0A            [ 1]  191 	push	#0x0a
      008E10 4B 50            [ 1]  192 	push	#0x50
                                    193 ; genCall
      008E12 CD 8A 80         [ 4]  194 	call	_GPIO_WriteHigh
      008E15 5B 03            [ 2]  195 	addw	sp, #3
                                    196 ;	./Src/ILI9341.c: 24: GPIO_WriteHigh(ILI9341_DS_Port, ILI9341_DS_PIN);
                                    197 ; genIPush
      008E17 4B 10            [ 1]  198 	push	#0x10
                                    199 ; genIPush
      008E19 4B 05            [ 1]  200 	push	#0x05
      008E1B 4B 50            [ 1]  201 	push	#0x50
                                    202 ; genCall
      008E1D CD 8A 80         [ 4]  203 	call	_GPIO_WriteHigh
      008E20 5B 03            [ 2]  204 	addw	sp, #3
                                    205 ; genLabel
      008E22                        206 00107$:
                                    207 ;	./Src/ILI9341.c: 25: }
                                    208 ; genEndFunction
      008E22 81               [ 4]  209 	ret
                                    210 ;	./Src/ILI9341.c: 27: void ILI9341_Write_Data(int data) {
                                    211 ; genLabel
                                    212 ;	-----------------------------------------
                                    213 ;	 function ILI9341_Write_Data
                                    214 ;	-----------------------------------------
                                    215 ;	Register assignment is optimal.
                                    216 ;	Stack space usage: 0 bytes.
      008E23                        217 _ILI9341_Write_Data:
                                    218 ;	./Src/ILI9341.c: 28: while(SPI_GetFlagStatus(SPI_FLAG_BSY));
                                    219 ; genLabel
      008E23                        220 00101$:
                                    221 ; genIPush
      008E23 4B 80            [ 1]  222 	push	#0x80
                                    223 ; genCall
      008E25 CD 8B EE         [ 4]  224 	call	_SPI_GetFlagStatus
      008E28 5B 01            [ 2]  225 	addw	sp, #1
                                    226 ; genIfx
      008E2A 4D               [ 1]  227 	tnz	a
      008E2B 27 03            [ 1]  228 	jreq	00129$
      008E2D CC 8E 23         [ 2]  229 	jp	00101$
      008E30                        230 00129$:
                                    231 ;	./Src/ILI9341.c: 29: GPIO_WriteLow(ILI9341_CS_Port, ILI9341_CS_PIN);
                                    232 ; genIPush
      008E30 4B 08            [ 1]  233 	push	#0x08
                                    234 ; genIPush
      008E32 4B 0A            [ 1]  235 	push	#0x0a
      008E34 4B 50            [ 1]  236 	push	#0x50
                                    237 ; genCall
      008E36 CD 8A 87         [ 4]  238 	call	_GPIO_WriteLow
      008E39 5B 03            [ 2]  239 	addw	sp, #3
                                    240 ;	./Src/ILI9341.c: 30: GPIO_WriteHigh(ILI9341_DS_Port, ILI9341_DS_PIN);
                                    241 ; genIPush
      008E3B 4B 10            [ 1]  242 	push	#0x10
                                    243 ; genIPush
      008E3D 4B 05            [ 1]  244 	push	#0x05
      008E3F 4B 50            [ 1]  245 	push	#0x50
                                    246 ; genCall
      008E41 CD 8A 80         [ 4]  247 	call	_GPIO_WriteHigh
      008E44 5B 03            [ 2]  248 	addw	sp, #3
                                    249 ;	./Src/ILI9341.c: 32: SPI_SendData(data);
                                    250 ; genCast
                                    251 ; genAssign
      008E46 7B 04            [ 1]  252 	ld	a, (0x04, sp)
                                    253 ; genIPush
      008E48 88               [ 1]  254 	push	a
                                    255 ; genCall
      008E49 CD 8B 70         [ 4]  256 	call	_SPI_SendData
      008E4C 84               [ 1]  257 	pop	a
                                    258 ;	./Src/ILI9341.c: 33: while(!SPI_GetFlagStatus(SPI_FLAG_TXE));
                                    259 ; genLabel
      008E4D                        260 00104$:
                                    261 ; genIPush
      008E4D 4B 02            [ 1]  262 	push	#0x02
                                    263 ; genCall
      008E4F CD 8B EE         [ 4]  264 	call	_SPI_GetFlagStatus
      008E52 5B 01            [ 2]  265 	addw	sp, #1
                                    266 ; genIfx
      008E54 4D               [ 1]  267 	tnz	a
      008E55 26 03            [ 1]  268 	jrne	00130$
      008E57 CC 8E 4D         [ 2]  269 	jp	00104$
      008E5A                        270 00130$:
                                    271 ;	./Src/ILI9341.c: 35: GPIO_WriteHigh(ILI9341_CS_Port, ILI9341_CS_PIN);
                                    272 ; genIPush
      008E5A 4B 08            [ 1]  273 	push	#0x08
                                    274 ; genIPush
      008E5C 4B 0A            [ 1]  275 	push	#0x0a
      008E5E 4B 50            [ 1]  276 	push	#0x50
                                    277 ; genCall
      008E60 CD 8A 80         [ 4]  278 	call	_GPIO_WriteHigh
      008E63 5B 03            [ 2]  279 	addw	sp, #3
                                    280 ; genLabel
      008E65                        281 00107$:
                                    282 ;	./Src/ILI9341.c: 36: }
                                    283 ; genEndFunction
      008E65 81               [ 4]  284 	ret
                                    285 ;	./Src/ILI9341.c: 38: void ILI9341_Init_Display() {
                                    286 ; genLabel
                                    287 ;	-----------------------------------------
                                    288 ;	 function ILI9341_Init_Display
                                    289 ;	-----------------------------------------
                                    290 ;	Register assignment is optimal.
                                    291 ;	Stack space usage: 0 bytes.
      008E66                        292 _ILI9341_Init_Display:
                                    293 ;	./Src/ILI9341.c: 39: GPIO_WriteHigh(ILI9341_CS_Port, ILI9341_CS_PIN);
                                    294 ; genIPush
      008E66 4B 08            [ 1]  295 	push	#0x08
                                    296 ; genIPush
      008E68 4B 0A            [ 1]  297 	push	#0x0a
      008E6A 4B 50            [ 1]  298 	push	#0x50
                                    299 ; genCall
      008E6C CD 8A 80         [ 4]  300 	call	_GPIO_WriteHigh
      008E6F 5B 03            [ 2]  301 	addw	sp, #3
                                    302 ;	./Src/ILI9341.c: 40: GPIO_WriteLow(ILI9341_Reset_Port, ILI9341_Reset_PIN);
                                    303 ; genIPush
      008E71 4B 20            [ 1]  304 	push	#0x20
                                    305 ; genIPush
      008E73 4B 05            [ 1]  306 	push	#0x05
      008E75 4B 50            [ 1]  307 	push	#0x50
                                    308 ; genCall
      008E77 CD 8A 87         [ 4]  309 	call	_GPIO_WriteLow
      008E7A 5B 03            [ 2]  310 	addw	sp, #3
                                    311 ;	./Src/ILI9341.c: 41: delay(100000);
                                    312 ; genIPush
      008E7C 4B A0            [ 1]  313 	push	#0xa0
      008E7E 4B 86            [ 1]  314 	push	#0x86
      008E80 4B 01            [ 1]  315 	push	#0x01
      008E82 4B 00            [ 1]  316 	push	#0x00
                                    317 ; genCall
      008E84 CD 92 4A         [ 4]  318 	call	_delay
      008E87 5B 04            [ 2]  319 	addw	sp, #4
                                    320 ;	./Src/ILI9341.c: 43: GPIO_WriteHigh(ILI9341_Reset_Port, ILI9341_Reset_PIN);
                                    321 ; genIPush
      008E89 4B 20            [ 1]  322 	push	#0x20
                                    323 ; genIPush
      008E8B 4B 05            [ 1]  324 	push	#0x05
      008E8D 4B 50            [ 1]  325 	push	#0x50
                                    326 ; genCall
      008E8F CD 8A 80         [ 4]  327 	call	_GPIO_WriteHigh
      008E92 5B 03            [ 2]  328 	addw	sp, #3
                                    329 ;	./Src/ILI9341.c: 44: GPIO_WriteHigh(ILI9341_LED_Port, ILI9341_LED_PIN);
                                    330 ; genIPush
      008E94 4B 10            [ 1]  331 	push	#0x10
                                    332 ; genIPush
      008E96 4B 0A            [ 1]  333 	push	#0x0a
      008E98 4B 50            [ 1]  334 	push	#0x50
                                    335 ; genCall
      008E9A CD 8A 80         [ 4]  336 	call	_GPIO_WriteHigh
      008E9D 5B 03            [ 2]  337 	addw	sp, #3
                                    338 ;	./Src/ILI9341.c: 45: delay(100000);
                                    339 ; genIPush
      008E9F 4B A0            [ 1]  340 	push	#0xa0
      008EA1 4B 86            [ 1]  341 	push	#0x86
      008EA3 4B 01            [ 1]  342 	push	#0x01
      008EA5 4B 00            [ 1]  343 	push	#0x00
                                    344 ; genCall
      008EA7 CD 92 4A         [ 4]  345 	call	_delay
      008EAA 5B 04            [ 2]  346 	addw	sp, #4
                                    347 ;	./Src/ILI9341.c: 47: ILI9341_Write_Command(ILI9341_RESET);
                                    348 ; genIPush
      008EAC 4B 01            [ 1]  349 	push	#0x01
      008EAE 4B 00            [ 1]  350 	push	#0x00
                                    351 ; genCall
      008EB0 CD 8D D5         [ 4]  352 	call	_ILI9341_Write_Command
      008EB3 85               [ 2]  353 	popw	x
                                    354 ;	./Src/ILI9341.c: 48: delay(100000);
                                    355 ; genIPush
      008EB4 4B A0            [ 1]  356 	push	#0xa0
      008EB6 4B 86            [ 1]  357 	push	#0x86
      008EB8 4B 01            [ 1]  358 	push	#0x01
      008EBA 4B 00            [ 1]  359 	push	#0x00
                                    360 ; genCall
      008EBC CD 92 4A         [ 4]  361 	call	_delay
      008EBF 5B 04            [ 2]  362 	addw	sp, #4
                                    363 ;	./Src/ILI9341.c: 51: ILI9341_Write_Command(ILI9341_POWERA);
                                    364 ; genIPush
      008EC1 4B CB            [ 1]  365 	push	#0xcb
      008EC3 4B 00            [ 1]  366 	push	#0x00
                                    367 ; genCall
      008EC5 CD 8D D5         [ 4]  368 	call	_ILI9341_Write_Command
      008EC8 85               [ 2]  369 	popw	x
                                    370 ;	./Src/ILI9341.c: 52: ILI9341_Write_Data(0x39);
                                    371 ; genIPush
      008EC9 4B 39            [ 1]  372 	push	#0x39
      008ECB 4B 00            [ 1]  373 	push	#0x00
                                    374 ; genCall
      008ECD CD 8E 23         [ 4]  375 	call	_ILI9341_Write_Data
      008ED0 85               [ 2]  376 	popw	x
                                    377 ;	./Src/ILI9341.c: 53: ILI9341_Write_Data(0x2C);
                                    378 ; genIPush
      008ED1 4B 2C            [ 1]  379 	push	#0x2c
      008ED3 4B 00            [ 1]  380 	push	#0x00
                                    381 ; genCall
      008ED5 CD 8E 23         [ 4]  382 	call	_ILI9341_Write_Data
      008ED8 85               [ 2]  383 	popw	x
                                    384 ;	./Src/ILI9341.c: 54: ILI9341_Write_Data(0x00);
                                    385 ; genIPush
      008ED9 5F               [ 1]  386 	clrw	x
      008EDA 89               [ 2]  387 	pushw	x
                                    388 ; genCall
      008EDB CD 8E 23         [ 4]  389 	call	_ILI9341_Write_Data
      008EDE 85               [ 2]  390 	popw	x
                                    391 ;	./Src/ILI9341.c: 55: ILI9341_Write_Data(0x34);
                                    392 ; genIPush
      008EDF 4B 34            [ 1]  393 	push	#0x34
      008EE1 4B 00            [ 1]  394 	push	#0x00
                                    395 ; genCall
      008EE3 CD 8E 23         [ 4]  396 	call	_ILI9341_Write_Data
      008EE6 85               [ 2]  397 	popw	x
                                    398 ;	./Src/ILI9341.c: 56: ILI9341_Write_Data(0x02);
                                    399 ; genIPush
      008EE7 4B 02            [ 1]  400 	push	#0x02
      008EE9 4B 00            [ 1]  401 	push	#0x00
                                    402 ; genCall
      008EEB CD 8E 23         [ 4]  403 	call	_ILI9341_Write_Data
      008EEE 85               [ 2]  404 	popw	x
                                    405 ;	./Src/ILI9341.c: 57: ILI9341_Write_Command(ILI9341_POWERB);
                                    406 ; genIPush
      008EEF 4B CF            [ 1]  407 	push	#0xcf
      008EF1 4B 00            [ 1]  408 	push	#0x00
                                    409 ; genCall
      008EF3 CD 8D D5         [ 4]  410 	call	_ILI9341_Write_Command
      008EF6 85               [ 2]  411 	popw	x
                                    412 ;	./Src/ILI9341.c: 58: ILI9341_Write_Data(0x00);
                                    413 ; genIPush
      008EF7 5F               [ 1]  414 	clrw	x
      008EF8 89               [ 2]  415 	pushw	x
                                    416 ; genCall
      008EF9 CD 8E 23         [ 4]  417 	call	_ILI9341_Write_Data
      008EFC 85               [ 2]  418 	popw	x
                                    419 ;	./Src/ILI9341.c: 59: ILI9341_Write_Data(0xC1);
                                    420 ; genIPush
      008EFD 4B C1            [ 1]  421 	push	#0xc1
      008EFF 4B 00            [ 1]  422 	push	#0x00
                                    423 ; genCall
      008F01 CD 8E 23         [ 4]  424 	call	_ILI9341_Write_Data
      008F04 85               [ 2]  425 	popw	x
                                    426 ;	./Src/ILI9341.c: 60: ILI9341_Write_Data(0x30);
                                    427 ; genIPush
      008F05 4B 30            [ 1]  428 	push	#0x30
      008F07 4B 00            [ 1]  429 	push	#0x00
                                    430 ; genCall
      008F09 CD 8E 23         [ 4]  431 	call	_ILI9341_Write_Data
      008F0C 85               [ 2]  432 	popw	x
                                    433 ;	./Src/ILI9341.c: 61: ILI9341_Write_Command(ILI9341_DTCA);
                                    434 ; genIPush
      008F0D 4B E8            [ 1]  435 	push	#0xe8
      008F0F 4B 00            [ 1]  436 	push	#0x00
                                    437 ; genCall
      008F11 CD 8D D5         [ 4]  438 	call	_ILI9341_Write_Command
      008F14 85               [ 2]  439 	popw	x
                                    440 ;	./Src/ILI9341.c: 62: ILI9341_Write_Data(0x85);
                                    441 ; genIPush
      008F15 4B 85            [ 1]  442 	push	#0x85
      008F17 4B 00            [ 1]  443 	push	#0x00
                                    444 ; genCall
      008F19 CD 8E 23         [ 4]  445 	call	_ILI9341_Write_Data
      008F1C 85               [ 2]  446 	popw	x
                                    447 ;	./Src/ILI9341.c: 63: ILI9341_Write_Data(0x00);
                                    448 ; genIPush
      008F1D 5F               [ 1]  449 	clrw	x
      008F1E 89               [ 2]  450 	pushw	x
                                    451 ; genCall
      008F1F CD 8E 23         [ 4]  452 	call	_ILI9341_Write_Data
      008F22 85               [ 2]  453 	popw	x
                                    454 ;	./Src/ILI9341.c: 64: ILI9341_Write_Data(0x78);
                                    455 ; genIPush
      008F23 4B 78            [ 1]  456 	push	#0x78
      008F25 4B 00            [ 1]  457 	push	#0x00
                                    458 ; genCall
      008F27 CD 8E 23         [ 4]  459 	call	_ILI9341_Write_Data
      008F2A 85               [ 2]  460 	popw	x
                                    461 ;	./Src/ILI9341.c: 65: ILI9341_Write_Command(ILI9341_DTCB);
                                    462 ; genIPush
      008F2B 4B EA            [ 1]  463 	push	#0xea
      008F2D 4B 00            [ 1]  464 	push	#0x00
                                    465 ; genCall
      008F2F CD 8D D5         [ 4]  466 	call	_ILI9341_Write_Command
      008F32 85               [ 2]  467 	popw	x
                                    468 ;	./Src/ILI9341.c: 66: ILI9341_Write_Data(0x00);
                                    469 ; genIPush
      008F33 5F               [ 1]  470 	clrw	x
      008F34 89               [ 2]  471 	pushw	x
                                    472 ; genCall
      008F35 CD 8E 23         [ 4]  473 	call	_ILI9341_Write_Data
      008F38 85               [ 2]  474 	popw	x
                                    475 ;	./Src/ILI9341.c: 67: ILI9341_Write_Data(0x00);
                                    476 ; genIPush
      008F39 5F               [ 1]  477 	clrw	x
      008F3A 89               [ 2]  478 	pushw	x
                                    479 ; genCall
      008F3B CD 8E 23         [ 4]  480 	call	_ILI9341_Write_Data
      008F3E 85               [ 2]  481 	popw	x
                                    482 ;	./Src/ILI9341.c: 68: ILI9341_Write_Command(ILI9341_POWER_SEQ);
                                    483 ; genIPush
      008F3F 4B ED            [ 1]  484 	push	#0xed
      008F41 4B 00            [ 1]  485 	push	#0x00
                                    486 ; genCall
      008F43 CD 8D D5         [ 4]  487 	call	_ILI9341_Write_Command
      008F46 85               [ 2]  488 	popw	x
                                    489 ;	./Src/ILI9341.c: 69: ILI9341_Write_Data(0x64);
                                    490 ; genIPush
      008F47 4B 64            [ 1]  491 	push	#0x64
      008F49 4B 00            [ 1]  492 	push	#0x00
                                    493 ; genCall
      008F4B CD 8E 23         [ 4]  494 	call	_ILI9341_Write_Data
      008F4E 85               [ 2]  495 	popw	x
                                    496 ;	./Src/ILI9341.c: 70: ILI9341_Write_Data(0x03);
                                    497 ; genIPush
      008F4F 4B 03            [ 1]  498 	push	#0x03
      008F51 4B 00            [ 1]  499 	push	#0x00
                                    500 ; genCall
      008F53 CD 8E 23         [ 4]  501 	call	_ILI9341_Write_Data
      008F56 85               [ 2]  502 	popw	x
                                    503 ;	./Src/ILI9341.c: 71: ILI9341_Write_Data(0x12);
                                    504 ; genIPush
      008F57 4B 12            [ 1]  505 	push	#0x12
      008F59 4B 00            [ 1]  506 	push	#0x00
                                    507 ; genCall
      008F5B CD 8E 23         [ 4]  508 	call	_ILI9341_Write_Data
      008F5E 85               [ 2]  509 	popw	x
                                    510 ;	./Src/ILI9341.c: 72: ILI9341_Write_Data(0x81);
                                    511 ; genIPush
      008F5F 4B 81            [ 1]  512 	push	#0x81
      008F61 4B 00            [ 1]  513 	push	#0x00
                                    514 ; genCall
      008F63 CD 8E 23         [ 4]  515 	call	_ILI9341_Write_Data
      008F66 85               [ 2]  516 	popw	x
                                    517 ;	./Src/ILI9341.c: 73: ILI9341_Write_Command(ILI9341_PRC);
                                    518 ; genIPush
      008F67 4B F7            [ 1]  519 	push	#0xf7
      008F69 4B 00            [ 1]  520 	push	#0x00
                                    521 ; genCall
      008F6B CD 8D D5         [ 4]  522 	call	_ILI9341_Write_Command
      008F6E 85               [ 2]  523 	popw	x
                                    524 ;	./Src/ILI9341.c: 74: ILI9341_Write_Data(0x20);
                                    525 ; genIPush
      008F6F 4B 20            [ 1]  526 	push	#0x20
      008F71 4B 00            [ 1]  527 	push	#0x00
                                    528 ; genCall
      008F73 CD 8E 23         [ 4]  529 	call	_ILI9341_Write_Data
      008F76 85               [ 2]  530 	popw	x
                                    531 ;	./Src/ILI9341.c: 75: ILI9341_Write_Command(ILI9341_POWER1);
                                    532 ; genIPush
      008F77 4B C0            [ 1]  533 	push	#0xc0
      008F79 4B 00            [ 1]  534 	push	#0x00
                                    535 ; genCall
      008F7B CD 8D D5         [ 4]  536 	call	_ILI9341_Write_Command
      008F7E 85               [ 2]  537 	popw	x
                                    538 ;	./Src/ILI9341.c: 76: ILI9341_Write_Data(0x23);
                                    539 ; genIPush
      008F7F 4B 23            [ 1]  540 	push	#0x23
      008F81 4B 00            [ 1]  541 	push	#0x00
                                    542 ; genCall
      008F83 CD 8E 23         [ 4]  543 	call	_ILI9341_Write_Data
      008F86 85               [ 2]  544 	popw	x
                                    545 ;	./Src/ILI9341.c: 77: ILI9341_Write_Command(ILI9341_POWER2);
                                    546 ; genIPush
      008F87 4B C1            [ 1]  547 	push	#0xc1
      008F89 4B 00            [ 1]  548 	push	#0x00
                                    549 ; genCall
      008F8B CD 8D D5         [ 4]  550 	call	_ILI9341_Write_Command
      008F8E 85               [ 2]  551 	popw	x
                                    552 ;	./Src/ILI9341.c: 78: ILI9341_Write_Data(0x10);
                                    553 ; genIPush
      008F8F 4B 10            [ 1]  554 	push	#0x10
      008F91 4B 00            [ 1]  555 	push	#0x00
                                    556 ; genCall
      008F93 CD 8E 23         [ 4]  557 	call	_ILI9341_Write_Data
      008F96 85               [ 2]  558 	popw	x
                                    559 ;	./Src/ILI9341.c: 79: ILI9341_Write_Command(ILI9341_VCOM1);
                                    560 ; genIPush
      008F97 4B C5            [ 1]  561 	push	#0xc5
      008F99 4B 00            [ 1]  562 	push	#0x00
                                    563 ; genCall
      008F9B CD 8D D5         [ 4]  564 	call	_ILI9341_Write_Command
      008F9E 85               [ 2]  565 	popw	x
                                    566 ;	./Src/ILI9341.c: 80: ILI9341_Write_Data(0x3E);
                                    567 ; genIPush
      008F9F 4B 3E            [ 1]  568 	push	#0x3e
      008FA1 4B 00            [ 1]  569 	push	#0x00
                                    570 ; genCall
      008FA3 CD 8E 23         [ 4]  571 	call	_ILI9341_Write_Data
      008FA6 85               [ 2]  572 	popw	x
                                    573 ;	./Src/ILI9341.c: 81: ILI9341_Write_Data(0x28);
                                    574 ; genIPush
      008FA7 4B 28            [ 1]  575 	push	#0x28
      008FA9 4B 00            [ 1]  576 	push	#0x00
                                    577 ; genCall
      008FAB CD 8E 23         [ 4]  578 	call	_ILI9341_Write_Data
      008FAE 85               [ 2]  579 	popw	x
                                    580 ;	./Src/ILI9341.c: 82: ILI9341_Write_Command(ILI9341_VCOM2);
                                    581 ; genIPush
      008FAF 4B C7            [ 1]  582 	push	#0xc7
      008FB1 4B 00            [ 1]  583 	push	#0x00
                                    584 ; genCall
      008FB3 CD 8D D5         [ 4]  585 	call	_ILI9341_Write_Command
      008FB6 85               [ 2]  586 	popw	x
                                    587 ;	./Src/ILI9341.c: 83: ILI9341_Write_Data(0x86);
                                    588 ; genIPush
      008FB7 4B 86            [ 1]  589 	push	#0x86
      008FB9 4B 00            [ 1]  590 	push	#0x00
                                    591 ; genCall
      008FBB CD 8E 23         [ 4]  592 	call	_ILI9341_Write_Data
      008FBE 85               [ 2]  593 	popw	x
                                    594 ;	./Src/ILI9341.c: 84: ILI9341_Write_Command(ILI9341_MAC);
                                    595 ; genIPush
      008FBF 4B 36            [ 1]  596 	push	#0x36
      008FC1 4B 00            [ 1]  597 	push	#0x00
                                    598 ; genCall
      008FC3 CD 8D D5         [ 4]  599 	call	_ILI9341_Write_Command
      008FC6 85               [ 2]  600 	popw	x
                                    601 ;	./Src/ILI9341.c: 85: ILI9341_Write_Data(0x48);
                                    602 ; genIPush
      008FC7 4B 48            [ 1]  603 	push	#0x48
      008FC9 4B 00            [ 1]  604 	push	#0x00
                                    605 ; genCall
      008FCB CD 8E 23         [ 4]  606 	call	_ILI9341_Write_Data
      008FCE 85               [ 2]  607 	popw	x
                                    608 ;	./Src/ILI9341.c: 86: ILI9341_Write_Command(ILI9341_PIXEL_FORMAT);
                                    609 ; genIPush
      008FCF 4B 3A            [ 1]  610 	push	#0x3a
      008FD1 4B 00            [ 1]  611 	push	#0x00
                                    612 ; genCall
      008FD3 CD 8D D5         [ 4]  613 	call	_ILI9341_Write_Command
      008FD6 85               [ 2]  614 	popw	x
                                    615 ;	./Src/ILI9341.c: 87: ILI9341_Write_Data(0x55);
                                    616 ; genIPush
      008FD7 4B 55            [ 1]  617 	push	#0x55
      008FD9 4B 00            [ 1]  618 	push	#0x00
                                    619 ; genCall
      008FDB CD 8E 23         [ 4]  620 	call	_ILI9341_Write_Data
      008FDE 85               [ 2]  621 	popw	x
                                    622 ;	./Src/ILI9341.c: 88: ILI9341_Write_Command(ILI9341_FRC);
                                    623 ; genIPush
      008FDF 4B B1            [ 1]  624 	push	#0xb1
      008FE1 4B 00            [ 1]  625 	push	#0x00
                                    626 ; genCall
      008FE3 CD 8D D5         [ 4]  627 	call	_ILI9341_Write_Command
      008FE6 85               [ 2]  628 	popw	x
                                    629 ;	./Src/ILI9341.c: 89: ILI9341_Write_Data(0x00);
                                    630 ; genIPush
      008FE7 5F               [ 1]  631 	clrw	x
      008FE8 89               [ 2]  632 	pushw	x
                                    633 ; genCall
      008FE9 CD 8E 23         [ 4]  634 	call	_ILI9341_Write_Data
      008FEC 85               [ 2]  635 	popw	x
                                    636 ;	./Src/ILI9341.c: 90: ILI9341_Write_Data(0x18);
                                    637 ; genIPush
      008FED 4B 18            [ 1]  638 	push	#0x18
      008FEF 4B 00            [ 1]  639 	push	#0x00
                                    640 ; genCall
      008FF1 CD 8E 23         [ 4]  641 	call	_ILI9341_Write_Data
      008FF4 85               [ 2]  642 	popw	x
                                    643 ;	./Src/ILI9341.c: 91: ILI9341_Write_Command(ILI9341_DFC);
                                    644 ; genIPush
      008FF5 4B B6            [ 1]  645 	push	#0xb6
      008FF7 4B 00            [ 1]  646 	push	#0x00
                                    647 ; genCall
      008FF9 CD 8D D5         [ 4]  648 	call	_ILI9341_Write_Command
      008FFC 85               [ 2]  649 	popw	x
                                    650 ;	./Src/ILI9341.c: 92: ILI9341_Write_Data(0x08);
                                    651 ; genIPush
      008FFD 4B 08            [ 1]  652 	push	#0x08
      008FFF 4B 00            [ 1]  653 	push	#0x00
                                    654 ; genCall
      009001 CD 8E 23         [ 4]  655 	call	_ILI9341_Write_Data
      009004 85               [ 2]  656 	popw	x
                                    657 ;	./Src/ILI9341.c: 93: ILI9341_Write_Data(0x82);
                                    658 ; genIPush
      009005 4B 82            [ 1]  659 	push	#0x82
      009007 4B 00            [ 1]  660 	push	#0x00
                                    661 ; genCall
      009009 CD 8E 23         [ 4]  662 	call	_ILI9341_Write_Data
      00900C 85               [ 2]  663 	popw	x
                                    664 ;	./Src/ILI9341.c: 94: ILI9341_Write_Data(0x27);
                                    665 ; genIPush
      00900D 4B 27            [ 1]  666 	push	#0x27
      00900F 4B 00            [ 1]  667 	push	#0x00
                                    668 ; genCall
      009011 CD 8E 23         [ 4]  669 	call	_ILI9341_Write_Data
      009014 85               [ 2]  670 	popw	x
                                    671 ;	./Src/ILI9341.c: 95: ILI9341_Write_Command(ILI9341_3GAMMA_EN);
                                    672 ; genIPush
      009015 4B F2            [ 1]  673 	push	#0xf2
      009017 4B 00            [ 1]  674 	push	#0x00
                                    675 ; genCall
      009019 CD 8D D5         [ 4]  676 	call	_ILI9341_Write_Command
      00901C 85               [ 2]  677 	popw	x
                                    678 ;	./Src/ILI9341.c: 96: ILI9341_Write_Data(0x00);
                                    679 ; genIPush
      00901D 5F               [ 1]  680 	clrw	x
      00901E 89               [ 2]  681 	pushw	x
                                    682 ; genCall
      00901F CD 8E 23         [ 4]  683 	call	_ILI9341_Write_Data
      009022 85               [ 2]  684 	popw	x
                                    685 ;	./Src/ILI9341.c: 97: ILI9341_Write_Command(ILI9341_COLUMN_ADDR);
                                    686 ; genIPush
      009023 4B 2A            [ 1]  687 	push	#0x2a
      009025 4B 00            [ 1]  688 	push	#0x00
                                    689 ; genCall
      009027 CD 8D D5         [ 4]  690 	call	_ILI9341_Write_Command
      00902A 85               [ 2]  691 	popw	x
                                    692 ;	./Src/ILI9341.c: 98: ILI9341_Write_Data(0x00);
                                    693 ; genIPush
      00902B 5F               [ 1]  694 	clrw	x
      00902C 89               [ 2]  695 	pushw	x
                                    696 ; genCall
      00902D CD 8E 23         [ 4]  697 	call	_ILI9341_Write_Data
      009030 85               [ 2]  698 	popw	x
                                    699 ;	./Src/ILI9341.c: 99: ILI9341_Write_Data(0x00);
                                    700 ; genIPush
      009031 5F               [ 1]  701 	clrw	x
      009032 89               [ 2]  702 	pushw	x
                                    703 ; genCall
      009033 CD 8E 23         [ 4]  704 	call	_ILI9341_Write_Data
      009036 85               [ 2]  705 	popw	x
                                    706 ;	./Src/ILI9341.c: 100: ILI9341_Write_Data(0x00);
                                    707 ; genIPush
      009037 5F               [ 1]  708 	clrw	x
      009038 89               [ 2]  709 	pushw	x
                                    710 ; genCall
      009039 CD 8E 23         [ 4]  711 	call	_ILI9341_Write_Data
      00903C 85               [ 2]  712 	popw	x
                                    713 ;	./Src/ILI9341.c: 101: ILI9341_Write_Data(0xEF);
                                    714 ; genIPush
      00903D 4B EF            [ 1]  715 	push	#0xef
      00903F 4B 00            [ 1]  716 	push	#0x00
                                    717 ; genCall
      009041 CD 8E 23         [ 4]  718 	call	_ILI9341_Write_Data
      009044 85               [ 2]  719 	popw	x
                                    720 ;	./Src/ILI9341.c: 102: ILI9341_Write_Command(ILI9341_PAGE_ADDR);
                                    721 ; genIPush
      009045 4B 2B            [ 1]  722 	push	#0x2b
      009047 4B 00            [ 1]  723 	push	#0x00
                                    724 ; genCall
      009049 CD 8D D5         [ 4]  725 	call	_ILI9341_Write_Command
      00904C 85               [ 2]  726 	popw	x
                                    727 ;	./Src/ILI9341.c: 103: ILI9341_Write_Data(0x00);
                                    728 ; genIPush
      00904D 5F               [ 1]  729 	clrw	x
      00904E 89               [ 2]  730 	pushw	x
                                    731 ; genCall
      00904F CD 8E 23         [ 4]  732 	call	_ILI9341_Write_Data
      009052 85               [ 2]  733 	popw	x
                                    734 ;	./Src/ILI9341.c: 104: ILI9341_Write_Data(0x00);
                                    735 ; genIPush
      009053 5F               [ 1]  736 	clrw	x
      009054 89               [ 2]  737 	pushw	x
                                    738 ; genCall
      009055 CD 8E 23         [ 4]  739 	call	_ILI9341_Write_Data
      009058 85               [ 2]  740 	popw	x
                                    741 ;	./Src/ILI9341.c: 105: ILI9341_Write_Data(0x01);
                                    742 ; genIPush
      009059 4B 01            [ 1]  743 	push	#0x01
      00905B 4B 00            [ 1]  744 	push	#0x00
                                    745 ; genCall
      00905D CD 8E 23         [ 4]  746 	call	_ILI9341_Write_Data
      009060 85               [ 2]  747 	popw	x
                                    748 ;	./Src/ILI9341.c: 106: ILI9341_Write_Data(0x3F);
                                    749 ; genIPush
      009061 4B 3F            [ 1]  750 	push	#0x3f
      009063 4B 00            [ 1]  751 	push	#0x00
                                    752 ; genCall
      009065 CD 8E 23         [ 4]  753 	call	_ILI9341_Write_Data
      009068 85               [ 2]  754 	popw	x
                                    755 ;	./Src/ILI9341.c: 107: ILI9341_Write_Command(ILI9341_GAMMA);
                                    756 ; genIPush
      009069 4B 26            [ 1]  757 	push	#0x26
      00906B 4B 00            [ 1]  758 	push	#0x00
                                    759 ; genCall
      00906D CD 8D D5         [ 4]  760 	call	_ILI9341_Write_Command
      009070 85               [ 2]  761 	popw	x
                                    762 ;	./Src/ILI9341.c: 108: ILI9341_Write_Data(0x01);
                                    763 ; genIPush
      009071 4B 01            [ 1]  764 	push	#0x01
      009073 4B 00            [ 1]  765 	push	#0x00
                                    766 ; genCall
      009075 CD 8E 23         [ 4]  767 	call	_ILI9341_Write_Data
      009078 85               [ 2]  768 	popw	x
                                    769 ;	./Src/ILI9341.c: 109: ILI9341_Write_Command(ILI9341_PGAMMA);
                                    770 ; genIPush
      009079 4B E0            [ 1]  771 	push	#0xe0
      00907B 4B 00            [ 1]  772 	push	#0x00
                                    773 ; genCall
      00907D CD 8D D5         [ 4]  774 	call	_ILI9341_Write_Command
      009080 85               [ 2]  775 	popw	x
                                    776 ;	./Src/ILI9341.c: 110: ILI9341_Write_Data(0x0F);
                                    777 ; genIPush
      009081 4B 0F            [ 1]  778 	push	#0x0f
      009083 4B 00            [ 1]  779 	push	#0x00
                                    780 ; genCall
      009085 CD 8E 23         [ 4]  781 	call	_ILI9341_Write_Data
      009088 85               [ 2]  782 	popw	x
                                    783 ;	./Src/ILI9341.c: 111: ILI9341_Write_Data(0x31);
                                    784 ; genIPush
      009089 4B 31            [ 1]  785 	push	#0x31
      00908B 4B 00            [ 1]  786 	push	#0x00
                                    787 ; genCall
      00908D CD 8E 23         [ 4]  788 	call	_ILI9341_Write_Data
      009090 85               [ 2]  789 	popw	x
                                    790 ;	./Src/ILI9341.c: 112: ILI9341_Write_Data(0x2B);
                                    791 ; genIPush
      009091 4B 2B            [ 1]  792 	push	#0x2b
      009093 4B 00            [ 1]  793 	push	#0x00
                                    794 ; genCall
      009095 CD 8E 23         [ 4]  795 	call	_ILI9341_Write_Data
      009098 85               [ 2]  796 	popw	x
                                    797 ;	./Src/ILI9341.c: 113: ILI9341_Write_Data(0x0C);
                                    798 ; genIPush
      009099 4B 0C            [ 1]  799 	push	#0x0c
      00909B 4B 00            [ 1]  800 	push	#0x00
                                    801 ; genCall
      00909D CD 8E 23         [ 4]  802 	call	_ILI9341_Write_Data
      0090A0 85               [ 2]  803 	popw	x
                                    804 ;	./Src/ILI9341.c: 114: ILI9341_Write_Data(0x0E);
                                    805 ; genIPush
      0090A1 4B 0E            [ 1]  806 	push	#0x0e
      0090A3 4B 00            [ 1]  807 	push	#0x00
                                    808 ; genCall
      0090A5 CD 8E 23         [ 4]  809 	call	_ILI9341_Write_Data
      0090A8 85               [ 2]  810 	popw	x
                                    811 ;	./Src/ILI9341.c: 115: ILI9341_Write_Data(0x08);
                                    812 ; genIPush
      0090A9 4B 08            [ 1]  813 	push	#0x08
      0090AB 4B 00            [ 1]  814 	push	#0x00
                                    815 ; genCall
      0090AD CD 8E 23         [ 4]  816 	call	_ILI9341_Write_Data
      0090B0 85               [ 2]  817 	popw	x
                                    818 ;	./Src/ILI9341.c: 116: ILI9341_Write_Data(0x4E);
                                    819 ; genIPush
      0090B1 4B 4E            [ 1]  820 	push	#0x4e
      0090B3 4B 00            [ 1]  821 	push	#0x00
                                    822 ; genCall
      0090B5 CD 8E 23         [ 4]  823 	call	_ILI9341_Write_Data
      0090B8 85               [ 2]  824 	popw	x
                                    825 ;	./Src/ILI9341.c: 117: ILI9341_Write_Data(0xF1);
                                    826 ; genIPush
      0090B9 4B F1            [ 1]  827 	push	#0xf1
      0090BB 4B 00            [ 1]  828 	push	#0x00
                                    829 ; genCall
      0090BD CD 8E 23         [ 4]  830 	call	_ILI9341_Write_Data
      0090C0 85               [ 2]  831 	popw	x
                                    832 ;	./Src/ILI9341.c: 118: ILI9341_Write_Data(0x37);
                                    833 ; genIPush
      0090C1 4B 37            [ 1]  834 	push	#0x37
      0090C3 4B 00            [ 1]  835 	push	#0x00
                                    836 ; genCall
      0090C5 CD 8E 23         [ 4]  837 	call	_ILI9341_Write_Data
      0090C8 85               [ 2]  838 	popw	x
                                    839 ;	./Src/ILI9341.c: 119: ILI9341_Write_Data(0x07);
                                    840 ; genIPush
      0090C9 4B 07            [ 1]  841 	push	#0x07
      0090CB 4B 00            [ 1]  842 	push	#0x00
                                    843 ; genCall
      0090CD CD 8E 23         [ 4]  844 	call	_ILI9341_Write_Data
      0090D0 85               [ 2]  845 	popw	x
                                    846 ;	./Src/ILI9341.c: 120: ILI9341_Write_Data(0x10);
                                    847 ; genIPush
      0090D1 4B 10            [ 1]  848 	push	#0x10
      0090D3 4B 00            [ 1]  849 	push	#0x00
                                    850 ; genCall
      0090D5 CD 8E 23         [ 4]  851 	call	_ILI9341_Write_Data
      0090D8 85               [ 2]  852 	popw	x
                                    853 ;	./Src/ILI9341.c: 121: ILI9341_Write_Data(0x03);
                                    854 ; genIPush
      0090D9 4B 03            [ 1]  855 	push	#0x03
      0090DB 4B 00            [ 1]  856 	push	#0x00
                                    857 ; genCall
      0090DD CD 8E 23         [ 4]  858 	call	_ILI9341_Write_Data
      0090E0 85               [ 2]  859 	popw	x
                                    860 ;	./Src/ILI9341.c: 122: ILI9341_Write_Data(0x0E);
                                    861 ; genIPush
      0090E1 4B 0E            [ 1]  862 	push	#0x0e
      0090E3 4B 00            [ 1]  863 	push	#0x00
                                    864 ; genCall
      0090E5 CD 8E 23         [ 4]  865 	call	_ILI9341_Write_Data
      0090E8 85               [ 2]  866 	popw	x
                                    867 ;	./Src/ILI9341.c: 123: ILI9341_Write_Data(0x09);
                                    868 ; genIPush
      0090E9 4B 09            [ 1]  869 	push	#0x09
      0090EB 4B 00            [ 1]  870 	push	#0x00
                                    871 ; genCall
      0090ED CD 8E 23         [ 4]  872 	call	_ILI9341_Write_Data
      0090F0 85               [ 2]  873 	popw	x
                                    874 ;	./Src/ILI9341.c: 124: ILI9341_Write_Data(0x00);
                                    875 ; genIPush
      0090F1 5F               [ 1]  876 	clrw	x
      0090F2 89               [ 2]  877 	pushw	x
                                    878 ; genCall
      0090F3 CD 8E 23         [ 4]  879 	call	_ILI9341_Write_Data
      0090F6 85               [ 2]  880 	popw	x
                                    881 ;	./Src/ILI9341.c: 125: ILI9341_Write_Command(ILI9341_NGAMMA);
                                    882 ; genIPush
      0090F7 4B E1            [ 1]  883 	push	#0xe1
      0090F9 4B 00            [ 1]  884 	push	#0x00
                                    885 ; genCall
      0090FB CD 8D D5         [ 4]  886 	call	_ILI9341_Write_Command
      0090FE 85               [ 2]  887 	popw	x
                                    888 ;	./Src/ILI9341.c: 126: ILI9341_Write_Data(0x00);
                                    889 ; genIPush
      0090FF 5F               [ 1]  890 	clrw	x
      009100 89               [ 2]  891 	pushw	x
                                    892 ; genCall
      009101 CD 8E 23         [ 4]  893 	call	_ILI9341_Write_Data
      009104 85               [ 2]  894 	popw	x
                                    895 ;	./Src/ILI9341.c: 127: ILI9341_Write_Data(0x0E);
                                    896 ; genIPush
      009105 4B 0E            [ 1]  897 	push	#0x0e
      009107 4B 00            [ 1]  898 	push	#0x00
                                    899 ; genCall
      009109 CD 8E 23         [ 4]  900 	call	_ILI9341_Write_Data
      00910C 85               [ 2]  901 	popw	x
                                    902 ;	./Src/ILI9341.c: 128: ILI9341_Write_Data(0x14);
                                    903 ; genIPush
      00910D 4B 14            [ 1]  904 	push	#0x14
      00910F 4B 00            [ 1]  905 	push	#0x00
                                    906 ; genCall
      009111 CD 8E 23         [ 4]  907 	call	_ILI9341_Write_Data
      009114 85               [ 2]  908 	popw	x
                                    909 ;	./Src/ILI9341.c: 129: ILI9341_Write_Data(0x03);
                                    910 ; genIPush
      009115 4B 03            [ 1]  911 	push	#0x03
      009117 4B 00            [ 1]  912 	push	#0x00
                                    913 ; genCall
      009119 CD 8E 23         [ 4]  914 	call	_ILI9341_Write_Data
      00911C 85               [ 2]  915 	popw	x
                                    916 ;	./Src/ILI9341.c: 130: ILI9341_Write_Data(0x11);
                                    917 ; genIPush
      00911D 4B 11            [ 1]  918 	push	#0x11
      00911F 4B 00            [ 1]  919 	push	#0x00
                                    920 ; genCall
      009121 CD 8E 23         [ 4]  921 	call	_ILI9341_Write_Data
      009124 85               [ 2]  922 	popw	x
                                    923 ;	./Src/ILI9341.c: 131: ILI9341_Write_Data(0x07);
                                    924 ; genIPush
      009125 4B 07            [ 1]  925 	push	#0x07
      009127 4B 00            [ 1]  926 	push	#0x00
                                    927 ; genCall
      009129 CD 8E 23         [ 4]  928 	call	_ILI9341_Write_Data
      00912C 85               [ 2]  929 	popw	x
                                    930 ;	./Src/ILI9341.c: 132: ILI9341_Write_Data(0x31);
                                    931 ; genIPush
      00912D 4B 31            [ 1]  932 	push	#0x31
      00912F 4B 00            [ 1]  933 	push	#0x00
                                    934 ; genCall
      009131 CD 8E 23         [ 4]  935 	call	_ILI9341_Write_Data
      009134 85               [ 2]  936 	popw	x
                                    937 ;	./Src/ILI9341.c: 133: ILI9341_Write_Data(0xC1);
                                    938 ; genIPush
      009135 4B C1            [ 1]  939 	push	#0xc1
      009137 4B 00            [ 1]  940 	push	#0x00
                                    941 ; genCall
      009139 CD 8E 23         [ 4]  942 	call	_ILI9341_Write_Data
      00913C 85               [ 2]  943 	popw	x
                                    944 ;	./Src/ILI9341.c: 134: ILI9341_Write_Data(0x48);
                                    945 ; genIPush
      00913D 4B 48            [ 1]  946 	push	#0x48
      00913F 4B 00            [ 1]  947 	push	#0x00
                                    948 ; genCall
      009141 CD 8E 23         [ 4]  949 	call	_ILI9341_Write_Data
      009144 85               [ 2]  950 	popw	x
                                    951 ;	./Src/ILI9341.c: 135: ILI9341_Write_Data(0x08);
                                    952 ; genIPush
      009145 4B 08            [ 1]  953 	push	#0x08
      009147 4B 00            [ 1]  954 	push	#0x00
                                    955 ; genCall
      009149 CD 8E 23         [ 4]  956 	call	_ILI9341_Write_Data
      00914C 85               [ 2]  957 	popw	x
                                    958 ;	./Src/ILI9341.c: 136: ILI9341_Write_Data(0x0F);
                                    959 ; genIPush
      00914D 4B 0F            [ 1]  960 	push	#0x0f
      00914F 4B 00            [ 1]  961 	push	#0x00
                                    962 ; genCall
      009151 CD 8E 23         [ 4]  963 	call	_ILI9341_Write_Data
      009154 85               [ 2]  964 	popw	x
                                    965 ;	./Src/ILI9341.c: 137: ILI9341_Write_Data(0x0C);
                                    966 ; genIPush
      009155 4B 0C            [ 1]  967 	push	#0x0c
      009157 4B 00            [ 1]  968 	push	#0x00
                                    969 ; genCall
      009159 CD 8E 23         [ 4]  970 	call	_ILI9341_Write_Data
      00915C 85               [ 2]  971 	popw	x
                                    972 ;	./Src/ILI9341.c: 138: ILI9341_Write_Data(0x31);
                                    973 ; genIPush
      00915D 4B 31            [ 1]  974 	push	#0x31
      00915F 4B 00            [ 1]  975 	push	#0x00
                                    976 ; genCall
      009161 CD 8E 23         [ 4]  977 	call	_ILI9341_Write_Data
      009164 85               [ 2]  978 	popw	x
                                    979 ;	./Src/ILI9341.c: 139: ILI9341_Write_Data(0x36);
                                    980 ; genIPush
      009165 4B 36            [ 1]  981 	push	#0x36
      009167 4B 00            [ 1]  982 	push	#0x00
                                    983 ; genCall
      009169 CD 8E 23         [ 4]  984 	call	_ILI9341_Write_Data
      00916C 85               [ 2]  985 	popw	x
                                    986 ;	./Src/ILI9341.c: 140: ILI9341_Write_Data(0x0F);
                                    987 ; genIPush
      00916D 4B 0F            [ 1]  988 	push	#0x0f
      00916F 4B 00            [ 1]  989 	push	#0x00
                                    990 ; genCall
      009171 CD 8E 23         [ 4]  991 	call	_ILI9341_Write_Data
      009174 85               [ 2]  992 	popw	x
                                    993 ;	./Src/ILI9341.c: 142: ILI9341_Write_Command(ILI9341_SLEEP_OUT);
                                    994 ; genIPush
      009175 4B 11            [ 1]  995 	push	#0x11
      009177 4B 00            [ 1]  996 	push	#0x00
                                    997 ; genCall
      009179 CD 8D D5         [ 4]  998 	call	_ILI9341_Write_Command
      00917C 85               [ 2]  999 	popw	x
                                   1000 ;	./Src/ILI9341.c: 144: delay(100000);
                                   1001 ; genIPush
      00917D 4B A0            [ 1] 1002 	push	#0xa0
      00917F 4B 86            [ 1] 1003 	push	#0x86
      009181 4B 01            [ 1] 1004 	push	#0x01
      009183 4B 00            [ 1] 1005 	push	#0x00
                                   1006 ; genCall
      009185 CD 92 4A         [ 4] 1007 	call	_delay
      009188 5B 04            [ 2] 1008 	addw	sp, #4
                                   1009 ;	./Src/ILI9341.c: 146: ILI9341_Write_Command(ILI9341_DISPLAY_ON);
                                   1010 ; genIPush
      00918A 4B 29            [ 1] 1011 	push	#0x29
      00918C 4B 00            [ 1] 1012 	push	#0x00
                                   1013 ; genCall
      00918E CD 8D D5         [ 4] 1014 	call	_ILI9341_Write_Command
      009191 85               [ 2] 1015 	popw	x
                                   1016 ;	./Src/ILI9341.c: 147: ILI9341_Write_Command(ILI9341_GRAM);
                                   1017 ; genIPush
      009192 4B 2C            [ 1] 1018 	push	#0x2c
      009194 4B 00            [ 1] 1019 	push	#0x00
                                   1020 ; genCall
      009196 CD 8D D5         [ 4] 1021 	call	_ILI9341_Write_Command
      009199 85               [ 2] 1022 	popw	x
                                   1023 ; genLabel
      00919A                       1024 00101$:
                                   1025 ;	./Src/ILI9341.c: 149: }
                                   1026 ; genEndFunction
      00919A 81               [ 4] 1027 	ret
                                   1028 	.area CODE
                                   1029 	.area CONST
                                   1030 	.area INITIALIZER
                                   1031 	.area CABS (ABS)
