                                      1 ;--------------------------------------------------------
                                      2 ; File Created by SDCC : free open source ANSI-C Compiler
                                      3 ; Version 3.8.0 #10562 (Mac OS X x86_64)
                                      4 ;--------------------------------------------------------
                                      5 	.module stm8s_adc1
                                      6 	.optsdcc -mstm8
                                      7 	
                                      8 ;--------------------------------------------------------
                                      9 ; Public variables in this module
                                     10 ;--------------------------------------------------------
                                     11 	.globl _ADC1_DeInit
                                     12 	.globl _ADC1_Init
                                     13 	.globl _ADC1_Cmd
                                     14 	.globl _ADC1_ScanModeCmd
                                     15 	.globl _ADC1_DataBufferCmd
                                     16 	.globl _ADC1_ITConfig
                                     17 	.globl _ADC1_PrescalerConfig
                                     18 	.globl _ADC1_SchmittTriggerConfig
                                     19 	.globl _ADC1_ConversionConfig
                                     20 	.globl _ADC1_ExternalTriggerConfig
                                     21 	.globl _ADC1_StartConversion
                                     22 	.globl _ADC1_GetConversionValue
                                     23 	.globl _ADC1_AWDChannelConfig
                                     24 	.globl _ADC1_SetHighThreshold
                                     25 	.globl _ADC1_SetLowThreshold
                                     26 	.globl _ADC1_GetBufferValue
                                     27 	.globl _ADC1_GetAWDChannelStatus
                                     28 	.globl _ADC1_GetFlagStatus
                                     29 	.globl _ADC1_ClearFlag
                                     30 	.globl _ADC1_GetITStatus
                                     31 	.globl _ADC1_ClearITPendingBit
                                     32 ;--------------------------------------------------------
                                     33 ; ram data
                                     34 ;--------------------------------------------------------
                                     35 	.area DATA
                                     36 ;--------------------------------------------------------
                                     37 ; ram data
                                     38 ;--------------------------------------------------------
                                     39 	.area INITIALIZED
                                     40 ;--------------------------------------------------------
                                     41 ; absolute external ram data
                                     42 ;--------------------------------------------------------
                                     43 	.area DABS (ABS)
                                     44 
                                     45 ; default segment ordering for linker
                                     46 	.area HOME
                                     47 	.area GSINIT
                                     48 	.area GSFINAL
                                     49 	.area CONST
                                     50 	.area INITIALIZER
                                     51 	.area CODE
                                     52 
                                     53 ;--------------------------------------------------------
                                     54 ; global & static initialisations
                                     55 ;--------------------------------------------------------
                                     56 	.area HOME
                                     57 	.area GSINIT
                                     58 	.area GSFINAL
                                     59 	.area GSINIT
                                     60 ;--------------------------------------------------------
                                     61 ; Home
                                     62 ;--------------------------------------------------------
                                     63 	.area HOME
                                     64 	.area HOME
                                     65 ;--------------------------------------------------------
                                     66 ; code
                                     67 ;--------------------------------------------------------
                                     68 	.area CODE
                                     69 ;	./STM8S_StdPeriph_Driver/src/stm8s_adc1.c: 52: void ADC1_DeInit(void)
                                     70 ; genLabel
                                     71 ;	-----------------------------------------
                                     72 ;	 function ADC1_DeInit
                                     73 ;	-----------------------------------------
                                     74 ;	Register assignment is optimal.
                                     75 ;	Stack space usage: 0 bytes.
      000000                         76 _ADC1_DeInit:
                                     77 ;	./STM8S_StdPeriph_Driver/src/stm8s_adc1.c: 54: ADC1->CSR  = ADC1_CSR_RESET_VALUE;
                                     78 ; genPointerSet
      000000 35 00 54 00      [ 1]   79 	mov	0x5400+0, #0x00
                                     80 ;	./STM8S_StdPeriph_Driver/src/stm8s_adc1.c: 55: ADC1->CR1  = ADC1_CR1_RESET_VALUE;
                                     81 ; genPointerSet
      000004 35 00 54 01      [ 1]   82 	mov	0x5401+0, #0x00
                                     83 ;	./STM8S_StdPeriph_Driver/src/stm8s_adc1.c: 56: ADC1->CR2  = ADC1_CR2_RESET_VALUE;
                                     84 ; genPointerSet
      000008 35 00 54 02      [ 1]   85 	mov	0x5402+0, #0x00
                                     86 ;	./STM8S_StdPeriph_Driver/src/stm8s_adc1.c: 57: ADC1->CR3  = ADC1_CR3_RESET_VALUE;
                                     87 ; genPointerSet
      00000C 35 00 54 03      [ 1]   88 	mov	0x5403+0, #0x00
                                     89 ;	./STM8S_StdPeriph_Driver/src/stm8s_adc1.c: 58: ADC1->TDRH = ADC1_TDRH_RESET_VALUE;
                                     90 ; genPointerSet
      000010 35 00 54 06      [ 1]   91 	mov	0x5406+0, #0x00
                                     92 ;	./STM8S_StdPeriph_Driver/src/stm8s_adc1.c: 59: ADC1->TDRL = ADC1_TDRL_RESET_VALUE;
                                     93 ; genPointerSet
      000014 35 00 54 07      [ 1]   94 	mov	0x5407+0, #0x00
                                     95 ;	./STM8S_StdPeriph_Driver/src/stm8s_adc1.c: 60: ADC1->HTRH = ADC1_HTRH_RESET_VALUE;
                                     96 ; genPointerSet
      000018 35 FF 54 08      [ 1]   97 	mov	0x5408+0, #0xff
                                     98 ;	./STM8S_StdPeriph_Driver/src/stm8s_adc1.c: 61: ADC1->HTRL = ADC1_HTRL_RESET_VALUE;
                                     99 ; genPointerSet
      00001C 35 03 54 09      [ 1]  100 	mov	0x5409+0, #0x03
                                    101 ;	./STM8S_StdPeriph_Driver/src/stm8s_adc1.c: 62: ADC1->LTRH = ADC1_LTRH_RESET_VALUE;
                                    102 ; genPointerSet
      000020 35 00 54 0A      [ 1]  103 	mov	0x540a+0, #0x00
                                    104 ;	./STM8S_StdPeriph_Driver/src/stm8s_adc1.c: 63: ADC1->LTRL = ADC1_LTRL_RESET_VALUE;
                                    105 ; genPointerSet
      000024 35 00 54 0B      [ 1]  106 	mov	0x540b+0, #0x00
                                    107 ;	./STM8S_StdPeriph_Driver/src/stm8s_adc1.c: 64: ADC1->AWCRH = ADC1_AWCRH_RESET_VALUE;
                                    108 ; genPointerSet
      000028 35 00 54 0E      [ 1]  109 	mov	0x540e+0, #0x00
                                    110 ;	./STM8S_StdPeriph_Driver/src/stm8s_adc1.c: 65: ADC1->AWCRL = ADC1_AWCRL_RESET_VALUE;
                                    111 ; genPointerSet
      00002C 35 00 54 0F      [ 1]  112 	mov	0x540f+0, #0x00
                                    113 ; genLabel
      000030                        114 00101$:
                                    115 ;	./STM8S_StdPeriph_Driver/src/stm8s_adc1.c: 66: }
                                    116 ; genEndFunction
      000030 81               [ 4]  117 	ret
                                    118 ;	./STM8S_StdPeriph_Driver/src/stm8s_adc1.c: 88: void ADC1_Init(ADC1_ConvMode_TypeDef ADC1_ConversionMode, ADC1_Channel_TypeDef ADC1_Channel, ADC1_PresSel_TypeDef ADC1_PrescalerSelection, ADC1_ExtTrig_TypeDef ADC1_ExtTrigger, FunctionalState ADC1_ExtTriggerState, ADC1_Align_TypeDef ADC1_Align, ADC1_SchmittTrigg_TypeDef ADC1_SchmittTriggerChannel, FunctionalState ADC1_SchmittTriggerState)
                                    119 ; genLabel
                                    120 ;	-----------------------------------------
                                    121 ;	 function ADC1_Init
                                    122 ;	-----------------------------------------
                                    123 ;	Register assignment is optimal.
                                    124 ;	Stack space usage: 0 bytes.
      000031                        125 _ADC1_Init:
                                    126 ;	./STM8S_StdPeriph_Driver/src/stm8s_adc1.c: 103: ADC1_ConversionConfig(ADC1_ConversionMode, ADC1_Channel, ADC1_Align);
                                    127 ; genIPush
      000031 7B 08            [ 1]  128 	ld	a, (0x08, sp)
      000033 88               [ 1]  129 	push	a
                                    130 ; genIPush
      000034 7B 05            [ 1]  131 	ld	a, (0x05, sp)
      000036 88               [ 1]  132 	push	a
                                    133 ; genIPush
      000037 7B 05            [ 1]  134 	ld	a, (0x05, sp)
      000039 88               [ 1]  135 	push	a
                                    136 ; genCall
      00003A CDr01r71         [ 4]  137 	call	_ADC1_ConversionConfig
      00003D 5B 03            [ 2]  138 	addw	sp, #3
                                    139 ;	./STM8S_StdPeriph_Driver/src/stm8s_adc1.c: 105: ADC1_PrescalerConfig(ADC1_PrescalerSelection);
                                    140 ; genIPush
      00003F 7B 05            [ 1]  141 	ld	a, (0x05, sp)
      000041 88               [ 1]  142 	push	a
                                    143 ; genCall
      000042 CDr00rCD         [ 4]  144 	call	_ADC1_PrescalerConfig
      000045 84               [ 1]  145 	pop	a
                                    146 ;	./STM8S_StdPeriph_Driver/src/stm8s_adc1.c: 110: ADC1_ExternalTriggerConfig(ADC1_ExtTrigger, ADC1_ExtTriggerState);
                                    147 ; genIPush
      000046 7B 07            [ 1]  148 	ld	a, (0x07, sp)
      000048 88               [ 1]  149 	push	a
                                    150 ; genIPush
      000049 7B 07            [ 1]  151 	ld	a, (0x07, sp)
      00004B 88               [ 1]  152 	push	a
                                    153 ; genCall
      00004C CDr01rAF         [ 4]  154 	call	_ADC1_ExternalTriggerConfig
      00004F 85               [ 2]  155 	popw	x
                                    156 ;	./STM8S_StdPeriph_Driver/src/stm8s_adc1.c: 115: ADC1_SchmittTriggerConfig(ADC1_SchmittTriggerChannel, ADC1_SchmittTriggerState);
                                    157 ; genIPush
      000050 7B 0A            [ 1]  158 	ld	a, (0x0a, sp)
      000052 88               [ 1]  159 	push	a
                                    160 ; genIPush
      000053 7B 0A            [ 1]  161 	ld	a, (0x0a, sp)
      000055 88               [ 1]  162 	push	a
                                    163 ; genCall
      000056 CDr00rDE         [ 4]  164 	call	_ADC1_SchmittTriggerConfig
      000059 85               [ 2]  165 	popw	x
                                    166 ;	./STM8S_StdPeriph_Driver/src/stm8s_adc1.c: 118: ADC1->CR1 |= ADC1_CR1_ADON;
                                    167 ; genPointerGet
      00005A C6 54 01         [ 1]  168 	ld	a, 0x5401
                                    169 ; genOr
      00005D AA 01            [ 1]  170 	or	a, #0x01
                                    171 ; genPointerSet
      00005F C7 54 01         [ 1]  172 	ld	0x5401, a
                                    173 ; genLabel
      000062                        174 00101$:
                                    175 ;	./STM8S_StdPeriph_Driver/src/stm8s_adc1.c: 119: }
                                    176 ; genEndFunction
      000062 81               [ 4]  177 	ret
                                    178 ;	./STM8S_StdPeriph_Driver/src/stm8s_adc1.c: 126: void ADC1_Cmd(FunctionalState NewState)
                                    179 ; genLabel
                                    180 ;	-----------------------------------------
                                    181 ;	 function ADC1_Cmd
                                    182 ;	-----------------------------------------
                                    183 ;	Register assignment is optimal.
                                    184 ;	Stack space usage: 0 bytes.
      000063                        185 _ADC1_Cmd:
                                    186 ;	./STM8S_StdPeriph_Driver/src/stm8s_adc1.c: 133: ADC1->CR1 |= ADC1_CR1_ADON;
                                    187 ; genPointerGet
      000063 C6 54 01         [ 1]  188 	ld	a, 0x5401
                                    189 ;	./STM8S_StdPeriph_Driver/src/stm8s_adc1.c: 131: if (NewState != DISABLE)
                                    190 ; genIfx
      000066 0D 03            [ 1]  191 	tnz	(0x03, sp)
      000068 26 03            [ 1]  192 	jrne	00111$
      00006A CCr00r75         [ 2]  193 	jp	00102$
      00006D                        194 00111$:
                                    195 ;	./STM8S_StdPeriph_Driver/src/stm8s_adc1.c: 133: ADC1->CR1 |= ADC1_CR1_ADON;
                                    196 ; genOr
      00006D AA 01            [ 1]  197 	or	a, #0x01
                                    198 ; genPointerSet
      00006F C7 54 01         [ 1]  199 	ld	0x5401, a
                                    200 ; genGoto
      000072 CCr00r7A         [ 2]  201 	jp	00104$
                                    202 ; genLabel
      000075                        203 00102$:
                                    204 ;	./STM8S_StdPeriph_Driver/src/stm8s_adc1.c: 137: ADC1->CR1 &= (uint8_t)(~ADC1_CR1_ADON);
                                    205 ; genAnd
      000075 A4 FE            [ 1]  206 	and	a, #0xfe
                                    207 ; genPointerSet
      000077 C7 54 01         [ 1]  208 	ld	0x5401, a
                                    209 ; genLabel
      00007A                        210 00104$:
                                    211 ;	./STM8S_StdPeriph_Driver/src/stm8s_adc1.c: 139: }
                                    212 ; genEndFunction
      00007A 81               [ 4]  213 	ret
                                    214 ;	./STM8S_StdPeriph_Driver/src/stm8s_adc1.c: 146: void ADC1_ScanModeCmd(FunctionalState NewState)
                                    215 ; genLabel
                                    216 ;	-----------------------------------------
                                    217 ;	 function ADC1_ScanModeCmd
                                    218 ;	-----------------------------------------
                                    219 ;	Register assignment is optimal.
                                    220 ;	Stack space usage: 0 bytes.
      00007B                        221 _ADC1_ScanModeCmd:
                                    222 ;	./STM8S_StdPeriph_Driver/src/stm8s_adc1.c: 153: ADC1->CR2 |= ADC1_CR2_SCAN;
                                    223 ; genPointerGet
      00007B C6 54 02         [ 1]  224 	ld	a, 0x5402
                                    225 ;	./STM8S_StdPeriph_Driver/src/stm8s_adc1.c: 151: if (NewState != DISABLE)
                                    226 ; genIfx
      00007E 0D 03            [ 1]  227 	tnz	(0x03, sp)
      000080 26 03            [ 1]  228 	jrne	00111$
      000082 CCr00r8D         [ 2]  229 	jp	00102$
      000085                        230 00111$:
                                    231 ;	./STM8S_StdPeriph_Driver/src/stm8s_adc1.c: 153: ADC1->CR2 |= ADC1_CR2_SCAN;
                                    232 ; genOr
      000085 AA 02            [ 1]  233 	or	a, #0x02
                                    234 ; genPointerSet
      000087 C7 54 02         [ 1]  235 	ld	0x5402, a
                                    236 ; genGoto
      00008A CCr00r92         [ 2]  237 	jp	00104$
                                    238 ; genLabel
      00008D                        239 00102$:
                                    240 ;	./STM8S_StdPeriph_Driver/src/stm8s_adc1.c: 157: ADC1->CR2 &= (uint8_t)(~ADC1_CR2_SCAN);
                                    241 ; genAnd
      00008D A4 FD            [ 1]  242 	and	a, #0xfd
                                    243 ; genPointerSet
      00008F C7 54 02         [ 1]  244 	ld	0x5402, a
                                    245 ; genLabel
      000092                        246 00104$:
                                    247 ;	./STM8S_StdPeriph_Driver/src/stm8s_adc1.c: 159: }
                                    248 ; genEndFunction
      000092 81               [ 4]  249 	ret
                                    250 ;	./STM8S_StdPeriph_Driver/src/stm8s_adc1.c: 166: void ADC1_DataBufferCmd(FunctionalState NewState)
                                    251 ; genLabel
                                    252 ;	-----------------------------------------
                                    253 ;	 function ADC1_DataBufferCmd
                                    254 ;	-----------------------------------------
                                    255 ;	Register assignment is optimal.
                                    256 ;	Stack space usage: 0 bytes.
      000093                        257 _ADC1_DataBufferCmd:
                                    258 ;	./STM8S_StdPeriph_Driver/src/stm8s_adc1.c: 173: ADC1->CR3 |= ADC1_CR3_DBUF;
                                    259 ; genPointerGet
      000093 C6 54 03         [ 1]  260 	ld	a, 0x5403
                                    261 ;	./STM8S_StdPeriph_Driver/src/stm8s_adc1.c: 171: if (NewState != DISABLE)
                                    262 ; genIfx
      000096 0D 03            [ 1]  263 	tnz	(0x03, sp)
      000098 26 03            [ 1]  264 	jrne	00111$
      00009A CCr00rA5         [ 2]  265 	jp	00102$
      00009D                        266 00111$:
                                    267 ;	./STM8S_StdPeriph_Driver/src/stm8s_adc1.c: 173: ADC1->CR3 |= ADC1_CR3_DBUF;
                                    268 ; genOr
      00009D AA 80            [ 1]  269 	or	a, #0x80
                                    270 ; genPointerSet
      00009F C7 54 03         [ 1]  271 	ld	0x5403, a
                                    272 ; genGoto
      0000A2 CCr00rAA         [ 2]  273 	jp	00104$
                                    274 ; genLabel
      0000A5                        275 00102$:
                                    276 ;	./STM8S_StdPeriph_Driver/src/stm8s_adc1.c: 177: ADC1->CR3 &= (uint8_t)(~ADC1_CR3_DBUF);
                                    277 ; genAnd
      0000A5 A4 7F            [ 1]  278 	and	a, #0x7f
                                    279 ; genPointerSet
      0000A7 C7 54 03         [ 1]  280 	ld	0x5403, a
                                    281 ; genLabel
      0000AA                        282 00104$:
                                    283 ;	./STM8S_StdPeriph_Driver/src/stm8s_adc1.c: 179: }
                                    284 ; genEndFunction
      0000AA 81               [ 4]  285 	ret
                                    286 ;	./STM8S_StdPeriph_Driver/src/stm8s_adc1.c: 190: void ADC1_ITConfig(ADC1_IT_TypeDef ADC1_IT, FunctionalState NewState)
                                    287 ; genLabel
                                    288 ;	-----------------------------------------
                                    289 ;	 function ADC1_ITConfig
                                    290 ;	-----------------------------------------
                                    291 ;	Register assignment might be sub-optimal.
                                    292 ;	Stack space usage: 1 bytes.
      0000AB                        293 _ADC1_ITConfig:
      0000AB 88               [ 1]  294 	push	a
                                    295 ;	./STM8S_StdPeriph_Driver/src/stm8s_adc1.c: 199: ADC1->CSR |= (uint8_t)ADC1_IT;
                                    296 ; genPointerGet
      0000AC C6 54 00         [ 1]  297 	ld	a, 0x5400
      0000AF 6B 01            [ 1]  298 	ld	(0x01, sp), a
                                    299 ;	./STM8S_StdPeriph_Driver/src/stm8s_adc1.c: 196: if (NewState != DISABLE)
                                    300 ; genIfx
      0000B1 0D 06            [ 1]  301 	tnz	(0x06, sp)
      0000B3 26 03            [ 1]  302 	jrne	00111$
      0000B5 CCr00rC2         [ 2]  303 	jp	00102$
      0000B8                        304 00111$:
                                    305 ;	./STM8S_StdPeriph_Driver/src/stm8s_adc1.c: 199: ADC1->CSR |= (uint8_t)ADC1_IT;
                                    306 ; genCast
                                    307 ; genAssign
      0000B8 7B 05            [ 1]  308 	ld	a, (0x05, sp)
                                    309 ; genOr
      0000BA 1A 01            [ 1]  310 	or	a, (0x01, sp)
                                    311 ; genPointerSet
      0000BC C7 54 00         [ 1]  312 	ld	0x5400, a
                                    313 ; genGoto
      0000BF CCr00rCB         [ 2]  314 	jp	00104$
                                    315 ; genLabel
      0000C2                        316 00102$:
                                    317 ;	./STM8S_StdPeriph_Driver/src/stm8s_adc1.c: 204: ADC1->CSR &= (uint8_t)((uint16_t)~(uint16_t)ADC1_IT);
                                    318 ; genCpl
      0000C2 1E 04            [ 2]  319 	ldw	x, (0x04, sp)
      0000C4 53               [ 2]  320 	cplw	x
                                    321 ; genCast
                                    322 ; genAssign
      0000C5 9F               [ 1]  323 	ld	a, xl
                                    324 ; genAnd
      0000C6 14 01            [ 1]  325 	and	a, (0x01, sp)
                                    326 ; genPointerSet
      0000C8 C7 54 00         [ 1]  327 	ld	0x5400, a
                                    328 ; genLabel
      0000CB                        329 00104$:
                                    330 ;	./STM8S_StdPeriph_Driver/src/stm8s_adc1.c: 206: }
                                    331 ; genEndFunction
      0000CB 84               [ 1]  332 	pop	a
      0000CC 81               [ 4]  333 	ret
                                    334 ;	./STM8S_StdPeriph_Driver/src/stm8s_adc1.c: 214: void ADC1_PrescalerConfig(ADC1_PresSel_TypeDef ADC1_Prescaler)
                                    335 ; genLabel
                                    336 ;	-----------------------------------------
                                    337 ;	 function ADC1_PrescalerConfig
                                    338 ;	-----------------------------------------
                                    339 ;	Register assignment is optimal.
                                    340 ;	Stack space usage: 0 bytes.
      0000CD                        341 _ADC1_PrescalerConfig:
                                    342 ;	./STM8S_StdPeriph_Driver/src/stm8s_adc1.c: 220: ADC1->CR1 &= (uint8_t)(~ADC1_CR1_SPSEL);
                                    343 ; genPointerGet
      0000CD C6 54 01         [ 1]  344 	ld	a, 0x5401
                                    345 ; genAnd
      0000D0 A4 8F            [ 1]  346 	and	a, #0x8f
                                    347 ; genPointerSet
      0000D2 C7 54 01         [ 1]  348 	ld	0x5401, a
                                    349 ;	./STM8S_StdPeriph_Driver/src/stm8s_adc1.c: 222: ADC1->CR1 |= (uint8_t)(ADC1_Prescaler);
                                    350 ; genPointerGet
      0000D5 C6 54 01         [ 1]  351 	ld	a, 0x5401
                                    352 ; genOr
      0000D8 1A 03            [ 1]  353 	or	a, (0x03, sp)
                                    354 ; genPointerSet
      0000DA C7 54 01         [ 1]  355 	ld	0x5401, a
                                    356 ; genLabel
      0000DD                        357 00101$:
                                    358 ;	./STM8S_StdPeriph_Driver/src/stm8s_adc1.c: 223: }
                                    359 ; genEndFunction
      0000DD 81               [ 4]  360 	ret
                                    361 ;	./STM8S_StdPeriph_Driver/src/stm8s_adc1.c: 233: void ADC1_SchmittTriggerConfig(ADC1_SchmittTrigg_TypeDef ADC1_SchmittTriggerChannel, FunctionalState NewState)
                                    362 ; genLabel
                                    363 ;	-----------------------------------------
                                    364 ;	 function ADC1_SchmittTriggerConfig
                                    365 ;	-----------------------------------------
                                    366 ;	Register assignment is optimal.
                                    367 ;	Stack space usage: 2 bytes.
      0000DE                        368 _ADC1_SchmittTriggerConfig:
      0000DE 89               [ 2]  369 	pushw	x
                                    370 ;	./STM8S_StdPeriph_Driver/src/stm8s_adc1.c: 239: if (ADC1_SchmittTriggerChannel == ADC1_SCHMITTTRIG_ALL)
                                    371 ; genCmpEQorNE
      0000DF 7B 05            [ 1]  372 	ld	a, (0x05, sp)
      0000E1 4C               [ 1]  373 	inc	a
      0000E2 26 03            [ 1]  374 	jrne	00144$
      0000E4 CCr00rEA         [ 2]  375 	jp	00145$
      0000E7                        376 00144$:
      0000E7 CCr01r10         [ 2]  377 	jp	00114$
      0000EA                        378 00145$:
                                    379 ; skipping generated iCode
                                    380 ;	./STM8S_StdPeriph_Driver/src/stm8s_adc1.c: 243: ADC1->TDRL &= (uint8_t)0x0;
                                    381 ; genPointerGet
                                    382 ; Dummy read
      0000EA C6 54 07         [ 1]  383 	ld	a, 0x5407
                                    384 ;	./STM8S_StdPeriph_Driver/src/stm8s_adc1.c: 241: if (NewState != DISABLE)
                                    385 ; genIfx
      0000ED 0D 06            [ 1]  386 	tnz	(0x06, sp)
      0000EF 26 03            [ 1]  387 	jrne	00146$
      0000F1 CCr01r02         [ 2]  388 	jp	00102$
      0000F4                        389 00146$:
                                    390 ;	./STM8S_StdPeriph_Driver/src/stm8s_adc1.c: 243: ADC1->TDRL &= (uint8_t)0x0;
                                    391 ; genPointerSet
      0000F4 35 00 54 07      [ 1]  392 	mov	0x5407+0, #0x00
                                    393 ;	./STM8S_StdPeriph_Driver/src/stm8s_adc1.c: 244: ADC1->TDRH &= (uint8_t)0x0;
                                    394 ; genPointerGet
                                    395 ; Dummy read
      0000F8 C6 54 06         [ 1]  396 	ld	a, 0x5406
                                    397 ; genPointerSet
      0000FB 35 00 54 06      [ 1]  398 	mov	0x5406+0, #0x00
                                    399 ; genGoto
      0000FF CCr01r6F         [ 2]  400 	jp	00116$
                                    401 ; genLabel
      000102                        402 00102$:
                                    403 ;	./STM8S_StdPeriph_Driver/src/stm8s_adc1.c: 248: ADC1->TDRL |= (uint8_t)0xFF;
                                    404 ; genPointerSet
      000102 35 FF 54 07      [ 1]  405 	mov	0x5407+0, #0xff
                                    406 ;	./STM8S_StdPeriph_Driver/src/stm8s_adc1.c: 249: ADC1->TDRH |= (uint8_t)0xFF;
                                    407 ; genPointerGet
                                    408 ; Dummy read
      000106 C6 54 06         [ 1]  409 	ld	a, 0x5406
                                    410 ; genPointerSet
      000109 35 FF 54 06      [ 1]  411 	mov	0x5406+0, #0xff
                                    412 ; genGoto
      00010D CCr01r6F         [ 2]  413 	jp	00116$
                                    414 ; genLabel
      000110                        415 00114$:
                                    416 ;	./STM8S_StdPeriph_Driver/src/stm8s_adc1.c: 252: else if (ADC1_SchmittTriggerChannel < ADC1_SCHMITTTRIG_CHANNEL8)
                                    417 ; genCmp
                                    418 ; genCmpTop
      000110 7B 05            [ 1]  419 	ld	a, (0x05, sp)
      000112 A1 08            [ 1]  420 	cp	a, #0x08
      000114 25 03            [ 1]  421 	jrc	00147$
      000116 CCr01r43         [ 2]  422 	jp	00111$
      000119                        423 00147$:
                                    424 ; skipping generated iCode
                                    425 ;	./STM8S_StdPeriph_Driver/src/stm8s_adc1.c: 243: ADC1->TDRL &= (uint8_t)0x0;
                                    426 ; genPointerGet
      000119 C6 54 07         [ 1]  427 	ld	a, 0x5407
      00011C 6B 02            [ 1]  428 	ld	(0x02, sp), a
                                    429 ;	./STM8S_StdPeriph_Driver/src/stm8s_adc1.c: 256: ADC1->TDRL &= (uint8_t)(~(uint8_t)((uint8_t)0x01 << (uint8_t)ADC1_SchmittTriggerChannel));
                                    430 ; genLeftShift
      00011E A6 01            [ 1]  431 	ld	a, #0x01
      000120 88               [ 1]  432 	push	a
      000121 7B 06            [ 1]  433 	ld	a, (0x06, sp)
      000123 27 05            [ 1]  434 	jreq	00149$
      000125                        435 00148$:
      000125 08 01            [ 1]  436 	sll	(1, sp)
      000127 4A               [ 1]  437 	dec	a
      000128 26 FB            [ 1]  438 	jrne	00148$
      00012A                        439 00149$:
      00012A 84               [ 1]  440 	pop	a
                                    441 ;	./STM8S_StdPeriph_Driver/src/stm8s_adc1.c: 254: if (NewState != DISABLE)
                                    442 ; genIfx
      00012B 0D 06            [ 1]  443 	tnz	(0x06, sp)
      00012D 26 03            [ 1]  444 	jrne	00150$
      00012F CCr01r3B         [ 2]  445 	jp	00105$
      000132                        446 00150$:
                                    447 ;	./STM8S_StdPeriph_Driver/src/stm8s_adc1.c: 256: ADC1->TDRL &= (uint8_t)(~(uint8_t)((uint8_t)0x01 << (uint8_t)ADC1_SchmittTriggerChannel));
                                    448 ; genCpl
      000132 43               [ 1]  449 	cpl	a
                                    450 ; genAnd
      000133 14 02            [ 1]  451 	and	a, (0x02, sp)
                                    452 ; genPointerSet
      000135 C7 54 07         [ 1]  453 	ld	0x5407, a
                                    454 ; genGoto
      000138 CCr01r6F         [ 2]  455 	jp	00116$
                                    456 ; genLabel
      00013B                        457 00105$:
                                    458 ;	./STM8S_StdPeriph_Driver/src/stm8s_adc1.c: 260: ADC1->TDRL |= (uint8_t)((uint8_t)0x01 << (uint8_t)ADC1_SchmittTriggerChannel);
                                    459 ; genOr
      00013B 1A 02            [ 1]  460 	or	a, (0x02, sp)
                                    461 ; genPointerSet
      00013D C7 54 07         [ 1]  462 	ld	0x5407, a
                                    463 ; genGoto
      000140 CCr01r6F         [ 2]  464 	jp	00116$
                                    465 ; genLabel
      000143                        466 00111$:
                                    467 ;	./STM8S_StdPeriph_Driver/src/stm8s_adc1.c: 244: ADC1->TDRH &= (uint8_t)0x0;
                                    468 ; genPointerGet
      000143 C6 54 06         [ 1]  469 	ld	a, 0x5406
      000146 6B 01            [ 1]  470 	ld	(0x01, sp), a
                                    471 ;	./STM8S_StdPeriph_Driver/src/stm8s_adc1.c: 267: ADC1->TDRH &= (uint8_t)(~(uint8_t)((uint8_t)0x01 << ((uint8_t)ADC1_SchmittTriggerChannel - (uint8_t)8)));
                                    472 ; genMinus
      000148 7B 05            [ 1]  473 	ld	a, (0x05, sp)
      00014A A0 08            [ 1]  474 	sub	a, #0x08
      00014C 97               [ 1]  475 	ld	xl, a
                                    476 ; genLeftShift
      00014D A6 01            [ 1]  477 	ld	a, #0x01
      00014F 88               [ 1]  478 	push	a
      000150 9F               [ 1]  479 	ld	a, xl
      000151 4D               [ 1]  480 	tnz	a
      000152 27 05            [ 1]  481 	jreq	00152$
      000154                        482 00151$:
      000154 08 01            [ 1]  483 	sll	(1, sp)
      000156 4A               [ 1]  484 	dec	a
      000157 26 FB            [ 1]  485 	jrne	00151$
      000159                        486 00152$:
      000159 84               [ 1]  487 	pop	a
                                    488 ;	./STM8S_StdPeriph_Driver/src/stm8s_adc1.c: 265: if (NewState != DISABLE)
                                    489 ; genIfx
      00015A 0D 06            [ 1]  490 	tnz	(0x06, sp)
      00015C 26 03            [ 1]  491 	jrne	00153$
      00015E CCr01r6A         [ 2]  492 	jp	00108$
      000161                        493 00153$:
                                    494 ;	./STM8S_StdPeriph_Driver/src/stm8s_adc1.c: 267: ADC1->TDRH &= (uint8_t)(~(uint8_t)((uint8_t)0x01 << ((uint8_t)ADC1_SchmittTriggerChannel - (uint8_t)8)));
                                    495 ; genCpl
      000161 43               [ 1]  496 	cpl	a
                                    497 ; genAnd
      000162 14 01            [ 1]  498 	and	a, (0x01, sp)
                                    499 ; genPointerSet
      000164 C7 54 06         [ 1]  500 	ld	0x5406, a
                                    501 ; genGoto
      000167 CCr01r6F         [ 2]  502 	jp	00116$
                                    503 ; genLabel
      00016A                        504 00108$:
                                    505 ;	./STM8S_StdPeriph_Driver/src/stm8s_adc1.c: 271: ADC1->TDRH |= (uint8_t)((uint8_t)0x01 << ((uint8_t)ADC1_SchmittTriggerChannel - (uint8_t)8));
                                    506 ; genOr
      00016A 1A 01            [ 1]  507 	or	a, (0x01, sp)
                                    508 ; genPointerSet
      00016C C7 54 06         [ 1]  509 	ld	0x5406, a
                                    510 ; genLabel
      00016F                        511 00116$:
                                    512 ;	./STM8S_StdPeriph_Driver/src/stm8s_adc1.c: 274: }
                                    513 ; genEndFunction
      00016F 85               [ 2]  514 	popw	x
      000170 81               [ 4]  515 	ret
                                    516 ;	./STM8S_StdPeriph_Driver/src/stm8s_adc1.c: 286: void ADC1_ConversionConfig(ADC1_ConvMode_TypeDef ADC1_ConversionMode, ADC1_Channel_TypeDef ADC1_Channel, ADC1_Align_TypeDef ADC1_Align)
                                    517 ; genLabel
                                    518 ;	-----------------------------------------
                                    519 ;	 function ADC1_ConversionConfig
                                    520 ;	-----------------------------------------
                                    521 ;	Register assignment is optimal.
                                    522 ;	Stack space usage: 0 bytes.
      000171                        523 _ADC1_ConversionConfig:
                                    524 ;	./STM8S_StdPeriph_Driver/src/stm8s_adc1.c: 294: ADC1->CR2 &= (uint8_t)(~ADC1_CR2_ALIGN);
                                    525 ; genPointerGet
      000171 C6 54 02         [ 1]  526 	ld	a, 0x5402
                                    527 ; genAnd
      000174 A4 F7            [ 1]  528 	and	a, #0xf7
                                    529 ; genPointerSet
      000176 C7 54 02         [ 1]  530 	ld	0x5402, a
                                    531 ;	./STM8S_StdPeriph_Driver/src/stm8s_adc1.c: 296: ADC1->CR2 |= (uint8_t)(ADC1_Align);
                                    532 ; genPointerGet
      000179 C6 54 02         [ 1]  533 	ld	a, 0x5402
                                    534 ; genOr
      00017C 1A 05            [ 1]  535 	or	a, (0x05, sp)
                                    536 ; genPointerSet
      00017E C7 54 02         [ 1]  537 	ld	0x5402, a
                                    538 ;	./STM8S_StdPeriph_Driver/src/stm8s_adc1.c: 301: ADC1->CR1 |= ADC1_CR1_CONT;
                                    539 ; genPointerGet
      000181 C6 54 01         [ 1]  540 	ld	a, 0x5401
                                    541 ;	./STM8S_StdPeriph_Driver/src/stm8s_adc1.c: 298: if (ADC1_ConversionMode == ADC1_CONVERSIONMODE_CONTINUOUS)
                                    542 ; genCmpEQorNE
      000184 88               [ 1]  543 	push	a
      000185 7B 04            [ 1]  544 	ld	a, (0x04, sp)
      000187 4A               [ 1]  545 	dec	a
      000188 84               [ 1]  546 	pop	a
      000189 26 03            [ 1]  547 	jrne	00112$
      00018B CCr01r91         [ 2]  548 	jp	00113$
      00018E                        549 00112$:
      00018E CCr01r99         [ 2]  550 	jp	00102$
      000191                        551 00113$:
                                    552 ; skipping generated iCode
                                    553 ;	./STM8S_StdPeriph_Driver/src/stm8s_adc1.c: 301: ADC1->CR1 |= ADC1_CR1_CONT;
                                    554 ; genOr
      000191 AA 02            [ 1]  555 	or	a, #0x02
                                    556 ; genPointerSet
      000193 C7 54 01         [ 1]  557 	ld	0x5401, a
                                    558 ; genGoto
      000196 CCr01r9E         [ 2]  559 	jp	00103$
                                    560 ; genLabel
      000199                        561 00102$:
                                    562 ;	./STM8S_StdPeriph_Driver/src/stm8s_adc1.c: 306: ADC1->CR1 &= (uint8_t)(~ADC1_CR1_CONT);
                                    563 ; genAnd
      000199 A4 FD            [ 1]  564 	and	a, #0xfd
                                    565 ; genPointerSet
      00019B C7 54 01         [ 1]  566 	ld	0x5401, a
                                    567 ; genLabel
      00019E                        568 00103$:
                                    569 ;	./STM8S_StdPeriph_Driver/src/stm8s_adc1.c: 310: ADC1->CSR &= (uint8_t)(~ADC1_CSR_CH);
                                    570 ; genPointerGet
      00019E C6 54 00         [ 1]  571 	ld	a, 0x5400
                                    572 ; genAnd
      0001A1 A4 F0            [ 1]  573 	and	a, #0xf0
                                    574 ; genPointerSet
      0001A3 C7 54 00         [ 1]  575 	ld	0x5400, a
                                    576 ;	./STM8S_StdPeriph_Driver/src/stm8s_adc1.c: 312: ADC1->CSR |= (uint8_t)(ADC1_Channel);
                                    577 ; genPointerGet
      0001A6 C6 54 00         [ 1]  578 	ld	a, 0x5400
                                    579 ; genOr
      0001A9 1A 04            [ 1]  580 	or	a, (0x04, sp)
                                    581 ; genPointerSet
      0001AB C7 54 00         [ 1]  582 	ld	0x5400, a
                                    583 ; genLabel
      0001AE                        584 00104$:
                                    585 ;	./STM8S_StdPeriph_Driver/src/stm8s_adc1.c: 313: }
                                    586 ; genEndFunction
      0001AE 81               [ 4]  587 	ret
                                    588 ;	./STM8S_StdPeriph_Driver/src/stm8s_adc1.c: 325: void ADC1_ExternalTriggerConfig(ADC1_ExtTrig_TypeDef ADC1_ExtTrigger, FunctionalState NewState)
                                    589 ; genLabel
                                    590 ;	-----------------------------------------
                                    591 ;	 function ADC1_ExternalTriggerConfig
                                    592 ;	-----------------------------------------
                                    593 ;	Register assignment is optimal.
                                    594 ;	Stack space usage: 0 bytes.
      0001AF                        595 _ADC1_ExternalTriggerConfig:
                                    596 ;	./STM8S_StdPeriph_Driver/src/stm8s_adc1.c: 332: ADC1->CR2 &= (uint8_t)(~ADC1_CR2_EXTSEL);
                                    597 ; genPointerGet
      0001AF C6 54 02         [ 1]  598 	ld	a, 0x5402
                                    599 ; genAnd
      0001B2 A4 CF            [ 1]  600 	and	a, #0xcf
                                    601 ; genPointerSet
      0001B4 C7 54 02         [ 1]  602 	ld	0x5402, a
                                    603 ; genPointerGet
      0001B7 C6 54 02         [ 1]  604 	ld	a, 0x5402
                                    605 ;	./STM8S_StdPeriph_Driver/src/stm8s_adc1.c: 334: if (NewState != DISABLE)
                                    606 ; genIfx
      0001BA 0D 04            [ 1]  607 	tnz	(0x04, sp)
      0001BC 26 03            [ 1]  608 	jrne	00111$
      0001BE CCr01rC9         [ 2]  609 	jp	00102$
      0001C1                        610 00111$:
                                    611 ;	./STM8S_StdPeriph_Driver/src/stm8s_adc1.c: 337: ADC1->CR2 |= (uint8_t)(ADC1_CR2_EXTTRIG);
                                    612 ; genOr
      0001C1 AA 40            [ 1]  613 	or	a, #0x40
                                    614 ; genPointerSet
      0001C3 C7 54 02         [ 1]  615 	ld	0x5402, a
                                    616 ; genGoto
      0001C6 CCr01rCE         [ 2]  617 	jp	00103$
                                    618 ; genLabel
      0001C9                        619 00102$:
                                    620 ;	./STM8S_StdPeriph_Driver/src/stm8s_adc1.c: 342: ADC1->CR2 &= (uint8_t)(~ADC1_CR2_EXTTRIG);
                                    621 ; genAnd
      0001C9 A4 BF            [ 1]  622 	and	a, #0xbf
                                    623 ; genPointerSet
      0001CB C7 54 02         [ 1]  624 	ld	0x5402, a
                                    625 ; genLabel
      0001CE                        626 00103$:
                                    627 ;	./STM8S_StdPeriph_Driver/src/stm8s_adc1.c: 346: ADC1->CR2 |= (uint8_t)(ADC1_ExtTrigger);
                                    628 ; genPointerGet
      0001CE C6 54 02         [ 1]  629 	ld	a, 0x5402
                                    630 ; genOr
      0001D1 1A 03            [ 1]  631 	or	a, (0x03, sp)
                                    632 ; genPointerSet
      0001D3 C7 54 02         [ 1]  633 	ld	0x5402, a
                                    634 ; genLabel
      0001D6                        635 00104$:
                                    636 ;	./STM8S_StdPeriph_Driver/src/stm8s_adc1.c: 347: }
                                    637 ; genEndFunction
      0001D6 81               [ 4]  638 	ret
                                    639 ;	./STM8S_StdPeriph_Driver/src/stm8s_adc1.c: 358: void ADC1_StartConversion(void)
                                    640 ; genLabel
                                    641 ;	-----------------------------------------
                                    642 ;	 function ADC1_StartConversion
                                    643 ;	-----------------------------------------
                                    644 ;	Register assignment is optimal.
                                    645 ;	Stack space usage: 0 bytes.
      0001D7                        646 _ADC1_StartConversion:
                                    647 ;	./STM8S_StdPeriph_Driver/src/stm8s_adc1.c: 360: ADC1->CR1 |= ADC1_CR1_ADON;
                                    648 ; genPointerGet
      0001D7 C6 54 01         [ 1]  649 	ld	a, 0x5401
                                    650 ; genOr
      0001DA AA 01            [ 1]  651 	or	a, #0x01
                                    652 ; genPointerSet
      0001DC C7 54 01         [ 1]  653 	ld	0x5401, a
                                    654 ; genLabel
      0001DF                        655 00101$:
                                    656 ;	./STM8S_StdPeriph_Driver/src/stm8s_adc1.c: 361: }
                                    657 ; genEndFunction
      0001DF 81               [ 4]  658 	ret
                                    659 ;	./STM8S_StdPeriph_Driver/src/stm8s_adc1.c: 370: uint16_t ADC1_GetConversionValue(void)
                                    660 ; genLabel
                                    661 ;	-----------------------------------------
                                    662 ;	 function ADC1_GetConversionValue
                                    663 ;	-----------------------------------------
                                    664 ;	Register assignment might be sub-optimal.
                                    665 ;	Stack space usage: 8 bytes.
      0001E0                        666 _ADC1_GetConversionValue:
      0001E0 52 08            [ 2]  667 	sub	sp, #8
                                    668 ;	./STM8S_StdPeriph_Driver/src/stm8s_adc1.c: 375: if ((ADC1->CR2 & ADC1_CR2_ALIGN) != 0) /* Right alignment */
                                    669 ; genPointerGet
      0001E2 C6 54 02         [ 1]  670 	ld	a, 0x5402
                                    671 ; genAnd
      0001E5 A5 08            [ 1]  672 	bcp	a, #0x08
      0001E7 26 03            [ 1]  673 	jrne	00111$
      0001E9 CCr02r05         [ 2]  674 	jp	00102$
      0001EC                        675 00111$:
                                    676 ; skipping generated iCode
                                    677 ;	./STM8S_StdPeriph_Driver/src/stm8s_adc1.c: 378: templ = ADC1->DRL;
                                    678 ; genPointerGet
      0001EC C6 54 05         [ 1]  679 	ld	a, 0x5405
      0001EF 97               [ 1]  680 	ld	xl, a
                                    681 ;	./STM8S_StdPeriph_Driver/src/stm8s_adc1.c: 380: temph = ADC1->DRH;
                                    682 ; genPointerGet
      0001F0 C6 54 04         [ 1]  683 	ld	a, 0x5404
                                    684 ; genCast
                                    685 ; genAssign
      0001F3 90 5F            [ 1]  686 	clrw	y
                                    687 ; genAssign
                                    688 ;	./STM8S_StdPeriph_Driver/src/stm8s_adc1.c: 382: temph = (uint16_t)(templ | (uint16_t)(temph << (uint8_t)8));
                                    689 ; genLeftShiftLiteral
      0001F5 0F 08            [ 1]  690 	clr	(0x08, sp)
                                    691 ; genCast
                                    692 ; genAssign
      0001F7 0F 05            [ 1]  693 	clr	(0x05, sp)
                                    694 ; genOr
      0001F9 1A 05            [ 1]  695 	or	a, (0x05, sp)
      0001FB 95               [ 1]  696 	ld	xh, a
      0001FC 9F               [ 1]  697 	ld	a, xl
      0001FD 1A 08            [ 1]  698 	or	a, (0x08, sp)
      0001FF 97               [ 1]  699 	ld	xl, a
                                    700 ; genAssign
      000200 1F 03            [ 2]  701 	ldw	(0x03, sp), x
                                    702 ; genGoto
      000202 CCr02r23         [ 2]  703 	jp	00103$
                                    704 ; genLabel
      000205                        705 00102$:
                                    706 ;	./STM8S_StdPeriph_Driver/src/stm8s_adc1.c: 387: temph = ADC1->DRH;
                                    707 ; genPointerGet
      000205 C6 54 04         [ 1]  708 	ld	a, 0x5404
                                    709 ; genCast
                                    710 ; genAssign
      000208 5F               [ 1]  711 	clrw	x
      000209 97               [ 1]  712 	ld	xl, a
                                    713 ; genAssign
      00020A 51               [ 1]  714 	exgw	x, y
                                    715 ;	./STM8S_StdPeriph_Driver/src/stm8s_adc1.c: 389: templ = ADC1->DRL;
                                    716 ; genPointerGet
      00020B C6 54 05         [ 1]  717 	ld	a, 0x5405
                                    718 ;	./STM8S_StdPeriph_Driver/src/stm8s_adc1.c: 391: temph = (uint16_t)((uint16_t)((uint16_t)templ << 6) | (uint16_t)((uint16_t)temph << 8));
                                    719 ; genCast
                                    720 ; genAssign
      00020E 5F               [ 1]  721 	clrw	x
      00020F 97               [ 1]  722 	ld	xl, a
                                    723 ; genLeftShiftLiteral
      000210 58               [ 2]  724 	sllw	x
      000211 58               [ 2]  725 	sllw	x
      000212 58               [ 2]  726 	sllw	x
      000213 58               [ 2]  727 	sllw	x
      000214 58               [ 2]  728 	sllw	x
      000215 58               [ 2]  729 	sllw	x
      000216 1F 01            [ 2]  730 	ldw	(0x01, sp), x
                                    731 ; genLeftShiftLiteral
      000218 4F               [ 1]  732 	clr	a
                                    733 ; genOr
      000219 1A 02            [ 1]  734 	or	a, (0x02, sp)
      00021B 97               [ 1]  735 	ld	xl, a
      00021C 90 9F            [ 1]  736 	ld	a, yl
      00021E 1A 01            [ 1]  737 	or	a, (0x01, sp)
      000220 95               [ 1]  738 	ld	xh, a
                                    739 ; genAssign
      000221 1F 03            [ 2]  740 	ldw	(0x03, sp), x
                                    741 ; genLabel
      000223                        742 00103$:
                                    743 ;	./STM8S_StdPeriph_Driver/src/stm8s_adc1.c: 394: return ((uint16_t)temph);
                                    744 ; genReturn
      000223 1E 03            [ 2]  745 	ldw	x, (0x03, sp)
                                    746 ; genLabel
      000225                        747 00104$:
                                    748 ;	./STM8S_StdPeriph_Driver/src/stm8s_adc1.c: 395: }
                                    749 ; genEndFunction
      000225 5B 08            [ 2]  750 	addw	sp, #8
      000227 81               [ 4]  751 	ret
                                    752 ;	./STM8S_StdPeriph_Driver/src/stm8s_adc1.c: 405: void ADC1_AWDChannelConfig(ADC1_Channel_TypeDef Channel, FunctionalState NewState)
                                    753 ; genLabel
                                    754 ;	-----------------------------------------
                                    755 ;	 function ADC1_AWDChannelConfig
                                    756 ;	-----------------------------------------
                                    757 ;	Register assignment is optimal.
                                    758 ;	Stack space usage: 2 bytes.
      000228                        759 _ADC1_AWDChannelConfig:
      000228 89               [ 2]  760 	pushw	x
                                    761 ;	./STM8S_StdPeriph_Driver/src/stm8s_adc1.c: 411: if (Channel < (uint8_t)8)
                                    762 ; genCmp
                                    763 ; genCmpTop
      000229 7B 05            [ 1]  764 	ld	a, (0x05, sp)
      00022B A1 08            [ 1]  765 	cp	a, #0x08
      00022D 25 03            [ 1]  766 	jrc	00127$
      00022F CCr02r5C         [ 2]  767 	jp	00108$
      000232                        768 00127$:
                                    769 ; skipping generated iCode
                                    770 ;	./STM8S_StdPeriph_Driver/src/stm8s_adc1.c: 415: ADC1->AWCRL |= (uint8_t)((uint8_t)1 << Channel);
                                    771 ; genPointerGet
      000232 C6 54 0F         [ 1]  772 	ld	a, 0x540f
      000235 6B 02            [ 1]  773 	ld	(0x02, sp), a
                                    774 ; genLeftShift
      000237 A6 01            [ 1]  775 	ld	a, #0x01
      000239 88               [ 1]  776 	push	a
      00023A 7B 06            [ 1]  777 	ld	a, (0x06, sp)
      00023C 27 05            [ 1]  778 	jreq	00129$
      00023E                        779 00128$:
      00023E 08 01            [ 1]  780 	sll	(1, sp)
      000240 4A               [ 1]  781 	dec	a
      000241 26 FB            [ 1]  782 	jrne	00128$
      000243                        783 00129$:
      000243 84               [ 1]  784 	pop	a
                                    785 ;	./STM8S_StdPeriph_Driver/src/stm8s_adc1.c: 413: if (NewState != DISABLE)
                                    786 ; genIfx
      000244 0D 06            [ 1]  787 	tnz	(0x06, sp)
      000246 26 03            [ 1]  788 	jrne	00130$
      000248 CCr02r53         [ 2]  789 	jp	00102$
      00024B                        790 00130$:
                                    791 ;	./STM8S_StdPeriph_Driver/src/stm8s_adc1.c: 415: ADC1->AWCRL |= (uint8_t)((uint8_t)1 << Channel);
                                    792 ; genOr
      00024B 1A 02            [ 1]  793 	or	a, (0x02, sp)
                                    794 ; genPointerSet
      00024D C7 54 0F         [ 1]  795 	ld	0x540f, a
                                    796 ; genGoto
      000250 CCr02r88         [ 2]  797 	jp	00110$
                                    798 ; genLabel
      000253                        799 00102$:
                                    800 ;	./STM8S_StdPeriph_Driver/src/stm8s_adc1.c: 419: ADC1->AWCRL &= (uint8_t)~(uint8_t)((uint8_t)1 << Channel);
                                    801 ; genCpl
      000253 43               [ 1]  802 	cpl	a
                                    803 ; genAnd
      000254 14 02            [ 1]  804 	and	a, (0x02, sp)
                                    805 ; genPointerSet
      000256 C7 54 0F         [ 1]  806 	ld	0x540f, a
                                    807 ; genGoto
      000259 CCr02r88         [ 2]  808 	jp	00110$
                                    809 ; genLabel
      00025C                        810 00108$:
                                    811 ;	./STM8S_StdPeriph_Driver/src/stm8s_adc1.c: 426: ADC1->AWCRH |= (uint8_t)((uint8_t)1 << (Channel - (uint8_t)8));
                                    812 ; genPointerGet
      00025C C6 54 0E         [ 1]  813 	ld	a, 0x540e
      00025F 6B 01            [ 1]  814 	ld	(0x01, sp), a
                                    815 ; genMinus
      000261 7B 05            [ 1]  816 	ld	a, (0x05, sp)
      000263 A0 08            [ 1]  817 	sub	a, #0x08
      000265 97               [ 1]  818 	ld	xl, a
                                    819 ; genLeftShift
      000266 A6 01            [ 1]  820 	ld	a, #0x01
      000268 88               [ 1]  821 	push	a
      000269 9F               [ 1]  822 	ld	a, xl
      00026A 4D               [ 1]  823 	tnz	a
      00026B 27 05            [ 1]  824 	jreq	00132$
      00026D                        825 00131$:
      00026D 08 01            [ 1]  826 	sll	(1, sp)
      00026F 4A               [ 1]  827 	dec	a
      000270 26 FB            [ 1]  828 	jrne	00131$
      000272                        829 00132$:
      000272 84               [ 1]  830 	pop	a
                                    831 ;	./STM8S_StdPeriph_Driver/src/stm8s_adc1.c: 424: if (NewState != DISABLE)
                                    832 ; genIfx
      000273 0D 06            [ 1]  833 	tnz	(0x06, sp)
      000275 26 03            [ 1]  834 	jrne	00133$
      000277 CCr02r82         [ 2]  835 	jp	00105$
      00027A                        836 00133$:
                                    837 ;	./STM8S_StdPeriph_Driver/src/stm8s_adc1.c: 426: ADC1->AWCRH |= (uint8_t)((uint8_t)1 << (Channel - (uint8_t)8));
                                    838 ; genOr
      00027A 1A 01            [ 1]  839 	or	a, (0x01, sp)
                                    840 ; genPointerSet
      00027C C7 54 0E         [ 1]  841 	ld	0x540e, a
                                    842 ; genGoto
      00027F CCr02r88         [ 2]  843 	jp	00110$
                                    844 ; genLabel
      000282                        845 00105$:
                                    846 ;	./STM8S_StdPeriph_Driver/src/stm8s_adc1.c: 430: ADC1->AWCRH &= (uint8_t)~(uint8_t)((uint8_t)1 << (uint8_t)(Channel - (uint8_t)8));
                                    847 ; genCpl
      000282 43               [ 1]  848 	cpl	a
                                    849 ; genAnd
      000283 14 01            [ 1]  850 	and	a, (0x01, sp)
                                    851 ; genPointerSet
      000285 C7 54 0E         [ 1]  852 	ld	0x540e, a
                                    853 ; genLabel
      000288                        854 00110$:
                                    855 ;	./STM8S_StdPeriph_Driver/src/stm8s_adc1.c: 433: }
                                    856 ; genEndFunction
      000288 85               [ 2]  857 	popw	x
      000289 81               [ 4]  858 	ret
                                    859 ;	./STM8S_StdPeriph_Driver/src/stm8s_adc1.c: 441: void ADC1_SetHighThreshold(uint16_t Threshold)
                                    860 ; genLabel
                                    861 ;	-----------------------------------------
                                    862 ;	 function ADC1_SetHighThreshold
                                    863 ;	-----------------------------------------
                                    864 ;	Register assignment is optimal.
                                    865 ;	Stack space usage: 0 bytes.
      00028A                        866 _ADC1_SetHighThreshold:
                                    867 ;	./STM8S_StdPeriph_Driver/src/stm8s_adc1.c: 443: ADC1->HTRH = (uint8_t)(Threshold >> (uint8_t)2);
                                    868 ; genRightShiftLiteral
      00028A 1E 03            [ 2]  869 	ldw	x, (0x03, sp)
      00028C 54               [ 2]  870 	srlw	x
      00028D 54               [ 2]  871 	srlw	x
                                    872 ; genCast
                                    873 ; genAssign
      00028E 9F               [ 1]  874 	ld	a, xl
                                    875 ; genPointerSet
      00028F C7 54 08         [ 1]  876 	ld	0x5408, a
                                    877 ;	./STM8S_StdPeriph_Driver/src/stm8s_adc1.c: 444: ADC1->HTRL = (uint8_t)Threshold;
                                    878 ; genCast
                                    879 ; genAssign
      000292 7B 04            [ 1]  880 	ld	a, (0x04, sp)
                                    881 ; genPointerSet
      000294 C7 54 09         [ 1]  882 	ld	0x5409, a
                                    883 ; genLabel
      000297                        884 00101$:
                                    885 ;	./STM8S_StdPeriph_Driver/src/stm8s_adc1.c: 445: }
                                    886 ; genEndFunction
      000297 81               [ 4]  887 	ret
                                    888 ;	./STM8S_StdPeriph_Driver/src/stm8s_adc1.c: 453: void ADC1_SetLowThreshold(uint16_t Threshold)
                                    889 ; genLabel
                                    890 ;	-----------------------------------------
                                    891 ;	 function ADC1_SetLowThreshold
                                    892 ;	-----------------------------------------
                                    893 ;	Register assignment is optimal.
                                    894 ;	Stack space usage: 0 bytes.
      000298                        895 _ADC1_SetLowThreshold:
                                    896 ;	./STM8S_StdPeriph_Driver/src/stm8s_adc1.c: 455: ADC1->LTRL = (uint8_t)Threshold;
                                    897 ; genCast
                                    898 ; genAssign
      000298 7B 04            [ 1]  899 	ld	a, (0x04, sp)
                                    900 ; genPointerSet
      00029A C7 54 0B         [ 1]  901 	ld	0x540b, a
                                    902 ;	./STM8S_StdPeriph_Driver/src/stm8s_adc1.c: 456: ADC1->LTRH = (uint8_t)(Threshold >> (uint8_t)2);
                                    903 ; genRightShiftLiteral
      00029D 1E 03            [ 2]  904 	ldw	x, (0x03, sp)
      00029F 54               [ 2]  905 	srlw	x
      0002A0 54               [ 2]  906 	srlw	x
                                    907 ; genCast
                                    908 ; genAssign
      0002A1 9F               [ 1]  909 	ld	a, xl
                                    910 ; genPointerSet
      0002A2 C7 54 0A         [ 1]  911 	ld	0x540a, a
                                    912 ; genLabel
      0002A5                        913 00101$:
                                    914 ;	./STM8S_StdPeriph_Driver/src/stm8s_adc1.c: 457: }
                                    915 ; genEndFunction
      0002A5 81               [ 4]  916 	ret
                                    917 ;	./STM8S_StdPeriph_Driver/src/stm8s_adc1.c: 466: uint16_t ADC1_GetBufferValue(uint8_t Buffer)
                                    918 ; genLabel
                                    919 ;	-----------------------------------------
                                    920 ;	 function ADC1_GetBufferValue
                                    921 ;	-----------------------------------------
                                    922 ;	Register assignment might be sub-optimal.
                                    923 ;	Stack space usage: 11 bytes.
      0002A6                        924 _ADC1_GetBufferValue:
      0002A6 52 0B            [ 2]  925 	sub	sp, #11
                                    926 ;	./STM8S_StdPeriph_Driver/src/stm8s_adc1.c: 474: if ((ADC1->CR2 & ADC1_CR2_ALIGN) != 0) /* Right alignment */
                                    927 ; genPointerGet
      0002A8 C6 54 02         [ 1]  928 	ld	a, 0x5402
      0002AB 6B 0B            [ 1]  929 	ld	(0x0b, sp), a
                                    930 ;	./STM8S_StdPeriph_Driver/src/stm8s_adc1.c: 477: templ = *(uint8_t*)(uint16_t)((uint16_t)ADC1_BaseAddress + (uint8_t)(Buffer << 1) + 1);
                                    931 ; genCast
                                    932 ; genAssign
      0002AD 7B 0E            [ 1]  933 	ld	a, (0x0e, sp)
                                    934 ; genLeftShiftLiteral
      0002AF 48               [ 1]  935 	sll	a
                                    936 ; genCast
                                    937 ; genAssign
                                    938 ; genCast
                                    939 ; genAssign
      0002B0 5F               [ 1]  940 	clrw	x
      0002B1 97               [ 1]  941 	ld	xl, a
                                    942 ; genCast
                                    943 ; genAssign
      0002B2 51               [ 1]  944 	exgw	x, y
                                    945 ; genPlus
      0002B3 93               [ 1]  946 	ldw	x, y
      0002B4 1C 53 E1         [ 2]  947 	addw	x, #0x53e1
                                    948 ;	./STM8S_StdPeriph_Driver/src/stm8s_adc1.c: 479: temph = *(uint8_t*)(uint16_t)((uint16_t)ADC1_BaseAddress + (uint8_t)(Buffer << 1));
                                    949 ; genPlus
      0002B7 72 A9 53 E0      [ 2]  950 	addw	y, #0x53e0
                                    951 ;	./STM8S_StdPeriph_Driver/src/stm8s_adc1.c: 477: templ = *(uint8_t*)(uint16_t)((uint16_t)ADC1_BaseAddress + (uint8_t)(Buffer << 1) + 1);
                                    952 ; genCast
                                    953 ; genAssign
                                    954 ;	./STM8S_StdPeriph_Driver/src/stm8s_adc1.c: 479: temph = *(uint8_t*)(uint16_t)((uint16_t)ADC1_BaseAddress + (uint8_t)(Buffer << 1));
                                    955 ; genCast
                                    956 ; genAssign
                                    957 ;	./STM8S_StdPeriph_Driver/src/stm8s_adc1.c: 477: templ = *(uint8_t*)(uint16_t)((uint16_t)ADC1_BaseAddress + (uint8_t)(Buffer << 1) + 1);
                                    958 ; genPointerGet
      0002BB F6               [ 1]  959 	ld	a, (x)
      0002BC 97               [ 1]  960 	ld	xl, a
                                    961 ;	./STM8S_StdPeriph_Driver/src/stm8s_adc1.c: 479: temph = *(uint8_t*)(uint16_t)((uint16_t)ADC1_BaseAddress + (uint8_t)(Buffer << 1));
                                    962 ; genPointerGet
      0002BD 90 F6            [ 1]  963 	ld	a, (y)
                                    964 ; genCast
                                    965 ; genAssign
      0002BF 90 5F            [ 1]  966 	clrw	y
                                    967 ;	./STM8S_StdPeriph_Driver/src/stm8s_adc1.c: 474: if ((ADC1->CR2 & ADC1_CR2_ALIGN) != 0) /* Right alignment */
                                    968 ; genAnd
      0002C1 88               [ 1]  969 	push	a
      0002C2 7B 0C            [ 1]  970 	ld	a, (0x0c, sp)
      0002C4 A5 08            [ 1]  971 	bcp	a, #0x08
      0002C6 84               [ 1]  972 	pop	a
      0002C7 26 03            [ 1]  973 	jrne	00111$
      0002C9 CCr02rDC         [ 2]  974 	jp	00102$
      0002CC                        975 00111$:
                                    976 ; skipping generated iCode
                                    977 ;	./STM8S_StdPeriph_Driver/src/stm8s_adc1.c: 477: templ = *(uint8_t*)(uint16_t)((uint16_t)ADC1_BaseAddress + (uint8_t)(Buffer << 1) + 1);
                                    978 ; genAssign
                                    979 ;	./STM8S_StdPeriph_Driver/src/stm8s_adc1.c: 479: temph = *(uint8_t*)(uint16_t)((uint16_t)ADC1_BaseAddress + (uint8_t)(Buffer << 1));
                                    980 ; genAssign
                                    981 ;	./STM8S_StdPeriph_Driver/src/stm8s_adc1.c: 481: temph = (uint16_t)(templ | (uint16_t)(temph << (uint8_t)8));
                                    982 ; genLeftShiftLiteral
      0002CC 0F 04            [ 1]  983 	clr	(0x04, sp)
                                    984 ; genCast
                                    985 ; genAssign
      0002CE 0F 01            [ 1]  986 	clr	(0x01, sp)
                                    987 ; genOr
      0002D0 1A 01            [ 1]  988 	or	a, (0x01, sp)
      0002D2 95               [ 1]  989 	ld	xh, a
      0002D3 9F               [ 1]  990 	ld	a, xl
      0002D4 1A 04            [ 1]  991 	or	a, (0x04, sp)
      0002D6 97               [ 1]  992 	ld	xl, a
                                    993 ; genAssign
      0002D7 1F 09            [ 2]  994 	ldw	(0x09, sp), x
                                    995 ; genGoto
      0002D9 CCr02rF6         [ 2]  996 	jp	00103$
                                    997 ; genLabel
      0002DC                        998 00102$:
                                    999 ;	./STM8S_StdPeriph_Driver/src/stm8s_adc1.c: 486: temph = *(uint8_t*)(uint16_t)((uint16_t)ADC1_BaseAddress + (uint8_t)(Buffer << 1));
                                   1000 ; genAssign
                                   1001 ;	./STM8S_StdPeriph_Driver/src/stm8s_adc1.c: 488: templ = *(uint8_t*)(uint16_t)((uint16_t)ADC1_BaseAddress + (uint8_t)(Buffer << 1) + 1);
                                   1002 ; genAssign
                                   1003 ;	./STM8S_StdPeriph_Driver/src/stm8s_adc1.c: 490: temph = (uint16_t)((uint16_t)((uint16_t)templ << 6) | (uint16_t)(temph << 8));
                                   1004 ; genCast
                                   1005 ; genAssign
      0002DC 02               [ 1] 1006 	rlwa	x
      0002DD 4F               [ 1] 1007 	clr	a
      0002DE 01               [ 1] 1008 	rrwa	x
                                   1009 ; genLeftShiftLiteral
      0002DF 58               [ 2] 1010 	sllw	x
      0002E0 58               [ 2] 1011 	sllw	x
      0002E1 58               [ 2] 1012 	sllw	x
      0002E2 58               [ 2] 1013 	sllw	x
      0002E3 58               [ 2] 1014 	sllw	x
      0002E4 58               [ 2] 1015 	sllw	x
      0002E5 1F 07            [ 2] 1016 	ldw	(0x07, sp), x
                                   1017 ; genLeftShiftLiteral
      0002E7 97               [ 1] 1018 	ld	xl, a
      0002E8 4F               [ 1] 1019 	clr	a
                                   1020 ; genOr
      0002E9 1A 08            [ 1] 1021 	or	a, (0x08, sp)
      0002EB 6B 06            [ 1] 1022 	ld	(0x06, sp), a
      0002ED 9F               [ 1] 1023 	ld	a, xl
      0002EE 1A 07            [ 1] 1024 	or	a, (0x07, sp)
                                   1025 ; genAssign
      0002F0 6B 09            [ 1] 1026 	ld	(0x09, sp), a
      0002F2 7B 06            [ 1] 1027 	ld	a, (0x06, sp)
      0002F4 6B 0A            [ 1] 1028 	ld	(0x0a, sp), a
                                   1029 ; genLabel
      0002F6                       1030 00103$:
                                   1031 ;	./STM8S_StdPeriph_Driver/src/stm8s_adc1.c: 493: return ((uint16_t)temph);
                                   1032 ; genReturn
      0002F6 1E 09            [ 2] 1033 	ldw	x, (0x09, sp)
                                   1034 ; genLabel
      0002F8                       1035 00104$:
                                   1036 ;	./STM8S_StdPeriph_Driver/src/stm8s_adc1.c: 494: }
                                   1037 ; genEndFunction
      0002F8 5B 0B            [ 2] 1038 	addw	sp, #11
      0002FA 81               [ 4] 1039 	ret
                                   1040 ;	./STM8S_StdPeriph_Driver/src/stm8s_adc1.c: 502: FlagStatus ADC1_GetAWDChannelStatus(ADC1_Channel_TypeDef Channel)
                                   1041 ; genLabel
                                   1042 ;	-----------------------------------------
                                   1043 ;	 function ADC1_GetAWDChannelStatus
                                   1044 ;	-----------------------------------------
                                   1045 ;	Register assignment is optimal.
                                   1046 ;	Stack space usage: 2 bytes.
      0002FB                       1047 _ADC1_GetAWDChannelStatus:
      0002FB 89               [ 2] 1048 	pushw	x
                                   1049 ;	./STM8S_StdPeriph_Driver/src/stm8s_adc1.c: 509: if (Channel < (uint8_t)8)
                                   1050 ; genCmp
                                   1051 ; genCmpTop
      0002FC 7B 05            [ 1] 1052 	ld	a, (0x05, sp)
      0002FE A1 08            [ 1] 1053 	cp	a, #0x08
      000300 25 03            [ 1] 1054 	jrc	00111$
      000302 CCr03r1C         [ 2] 1055 	jp	00102$
      000305                       1056 00111$:
                                   1057 ; skipping generated iCode
                                   1058 ;	./STM8S_StdPeriph_Driver/src/stm8s_adc1.c: 511: status = (uint8_t)(ADC1->AWSRL & (uint8_t)((uint8_t)1 << Channel));
                                   1059 ; genPointerGet
      000305 C6 54 0D         [ 1] 1060 	ld	a, 0x540d
                                   1061 ; genLeftShift
      000308 88               [ 1] 1062 	push	a
      000309 A6 01            [ 1] 1063 	ld	a, #0x01
      00030B 6B 03            [ 1] 1064 	ld	(0x03, sp), a
      00030D 7B 06            [ 1] 1065 	ld	a, (0x06, sp)
      00030F 27 05            [ 1] 1066 	jreq	00113$
      000311                       1067 00112$:
      000311 08 03            [ 1] 1068 	sll	(0x03, sp)
      000313 4A               [ 1] 1069 	dec	a
      000314 26 FB            [ 1] 1070 	jrne	00112$
      000316                       1071 00113$:
      000316 84               [ 1] 1072 	pop	a
                                   1073 ; genAnd
      000317 14 02            [ 1] 1074 	and	a, (0x02, sp)
                                   1075 ; genAssign
                                   1076 ; genGoto
      000319 CCr03r35         [ 2] 1077 	jp	00103$
                                   1078 ; genLabel
      00031C                       1079 00102$:
                                   1080 ;	./STM8S_StdPeriph_Driver/src/stm8s_adc1.c: 515: status = (uint8_t)(ADC1->AWSRH & (uint8_t)((uint8_t)1 << (Channel - (uint8_t)8)));
                                   1081 ; genPointerGet
      00031C C6 54 0C         [ 1] 1082 	ld	a, 0x540c
      00031F 97               [ 1] 1083 	ld	xl, a
                                   1084 ; genMinus
      000320 7B 05            [ 1] 1085 	ld	a, (0x05, sp)
      000322 A0 08            [ 1] 1086 	sub	a, #0x08
                                   1087 ; genLeftShift
      000324 88               [ 1] 1088 	push	a
      000325 A6 01            [ 1] 1089 	ld	a, #0x01
      000327 6B 02            [ 1] 1090 	ld	(0x02, sp), a
      000329 84               [ 1] 1091 	pop	a
      00032A 4D               [ 1] 1092 	tnz	a
      00032B 27 05            [ 1] 1093 	jreq	00115$
      00032D                       1094 00114$:
      00032D 08 01            [ 1] 1095 	sll	(0x01, sp)
      00032F 4A               [ 1] 1096 	dec	a
      000330 26 FB            [ 1] 1097 	jrne	00114$
      000332                       1098 00115$:
                                   1099 ; genAnd
      000332 9F               [ 1] 1100 	ld	a, xl
      000333 14 01            [ 1] 1101 	and	a, (0x01, sp)
                                   1102 ; genAssign
                                   1103 ; genLabel
      000335                       1104 00103$:
                                   1105 ;	./STM8S_StdPeriph_Driver/src/stm8s_adc1.c: 518: return ((FlagStatus)status);
                                   1106 ; genReturn
                                   1107 ; genLabel
      000335                       1108 00104$:
                                   1109 ;	./STM8S_StdPeriph_Driver/src/stm8s_adc1.c: 519: }
                                   1110 ; genEndFunction
      000335 85               [ 2] 1111 	popw	x
      000336 81               [ 4] 1112 	ret
                                   1113 ;	./STM8S_StdPeriph_Driver/src/stm8s_adc1.c: 527: FlagStatus ADC1_GetFlagStatus(ADC1_Flag_TypeDef Flag)
                                   1114 ; genLabel
                                   1115 ;	-----------------------------------------
                                   1116 ;	 function ADC1_GetFlagStatus
                                   1117 ;	-----------------------------------------
                                   1118 ;	Register assignment might be sub-optimal.
                                   1119 ;	Stack space usage: 4 bytes.
      000337                       1120 _ADC1_GetFlagStatus:
      000337 52 04            [ 2] 1121 	sub	sp, #4
                                   1122 ;	./STM8S_StdPeriph_Driver/src/stm8s_adc1.c: 535: if ((Flag & 0x0F) == 0x01)
                                   1123 ; genCast
                                   1124 ; genAssign
      000339 7B 07            [ 1] 1125 	ld	a, (0x07, sp)
      00033B 0F 03            [ 1] 1126 	clr	(0x03, sp)
                                   1127 ; genAnd
      00033D 88               [ 1] 1128 	push	a
      00033E A4 0F            [ 1] 1129 	and	a, #0x0f
      000340 97               [ 1] 1130 	ld	xl, a
      000341 4F               [ 1] 1131 	clr	a
      000342 95               [ 1] 1132 	ld	xh, a
      000343 84               [ 1] 1133 	pop	a
                                   1134 ; genCmpEQorNE
      000344 5A               [ 2] 1135 	decw	x
      000345 26 03            [ 1] 1136 	jrne	00128$
      000347 CCr03r4D         [ 2] 1137 	jp	00129$
      00034A                       1138 00128$:
      00034A CCr03r55         [ 2] 1139 	jp	00108$
      00034D                       1140 00129$:
                                   1141 ; skipping generated iCode
                                   1142 ;	./STM8S_StdPeriph_Driver/src/stm8s_adc1.c: 538: flagstatus = (uint8_t)(ADC1->CR3 & ADC1_CR3_OVR);
                                   1143 ; genPointerGet
      00034D C6 54 03         [ 1] 1144 	ld	a, 0x5403
                                   1145 ; genAnd
      000350 A4 40            [ 1] 1146 	and	a, #0x40
                                   1147 ; genGoto
      000352 CCr03rA8         [ 2] 1148 	jp	00109$
                                   1149 ; genLabel
      000355                       1150 00108$:
                                   1151 ;	./STM8S_StdPeriph_Driver/src/stm8s_adc1.c: 540: else if ((Flag & 0xF0) == 0x10)
                                   1152 ; genAnd
      000355 A4 F0            [ 1] 1153 	and	a, #0xf0
      000357 97               [ 1] 1154 	ld	xl, a
      000358 4F               [ 1] 1155 	clr	a
                                   1156 ; genCmpEQorNE
      000359 95               [ 1] 1157 	ld	xh, a
      00035A A3 00 10         [ 2] 1158 	cpw	x, #0x0010
      00035D 26 03            [ 1] 1159 	jrne	00131$
      00035F CCr03r65         [ 2] 1160 	jp	00132$
      000362                       1161 00131$:
      000362 CCr03rA3         [ 2] 1162 	jp	00105$
      000365                       1163 00132$:
                                   1164 ; skipping generated iCode
                                   1165 ;	./STM8S_StdPeriph_Driver/src/stm8s_adc1.c: 543: temp = (uint8_t)(Flag & (uint8_t)0x0F);
                                   1166 ; genAnd
      000365 7B 07            [ 1] 1167 	ld	a, (0x07, sp)
      000367 A4 0F            [ 1] 1168 	and	a, #0x0f
      000369 97               [ 1] 1169 	ld	xl, a
                                   1170 ;	./STM8S_StdPeriph_Driver/src/stm8s_adc1.c: 544: if (temp < 8)
                                   1171 ; genCmp
                                   1172 ; genCmpTop
      00036A 9F               [ 1] 1173 	ld	a, xl
      00036B A1 08            [ 1] 1174 	cp	a, #0x08
      00036D 25 03            [ 1] 1175 	jrc	00133$
      00036F CCr03r89         [ 2] 1176 	jp	00102$
      000372                       1177 00133$:
                                   1178 ; skipping generated iCode
                                   1179 ;	./STM8S_StdPeriph_Driver/src/stm8s_adc1.c: 546: flagstatus = (uint8_t)(ADC1->AWSRL & (uint8_t)((uint8_t)1 << temp));
                                   1180 ; genPointerGet
      000372 C6 54 0D         [ 1] 1181 	ld	a, 0x540d
      000375 6B 02            [ 1] 1182 	ld	(0x02, sp), a
                                   1183 ; genLeftShift
      000377 A6 01            [ 1] 1184 	ld	a, #0x01
      000379 88               [ 1] 1185 	push	a
      00037A 9F               [ 1] 1186 	ld	a, xl
      00037B 4D               [ 1] 1187 	tnz	a
      00037C 27 05            [ 1] 1188 	jreq	00135$
      00037E                       1189 00134$:
      00037E 08 01            [ 1] 1190 	sll	(1, sp)
      000380 4A               [ 1] 1191 	dec	a
      000381 26 FB            [ 1] 1192 	jrne	00134$
      000383                       1193 00135$:
      000383 84               [ 1] 1194 	pop	a
                                   1195 ; genAnd
      000384 14 02            [ 1] 1196 	and	a, (0x02, sp)
                                   1197 ; genAssign
                                   1198 ; genGoto
      000386 CCr03rA8         [ 2] 1199 	jp	00109$
                                   1200 ; genLabel
      000389                       1201 00102$:
                                   1202 ;	./STM8S_StdPeriph_Driver/src/stm8s_adc1.c: 550: flagstatus = (uint8_t)(ADC1->AWSRH & (uint8_t)((uint8_t)1 << (temp - 8)));
                                   1203 ; genPointerGet
      000389 C6 54 0C         [ 1] 1204 	ld	a, 0x540c
      00038C 6B 01            [ 1] 1205 	ld	(0x01, sp), a
                                   1206 ; genCast
                                   1207 ; genAssign
                                   1208 ; genMinus
      00038E 1D 00 08         [ 2] 1209 	subw	x, #8
                                   1210 ; genLeftShift
      000391 A6 01            [ 1] 1211 	ld	a, #0x01
      000393 88               [ 1] 1212 	push	a
      000394 9F               [ 1] 1213 	ld	a, xl
      000395 4D               [ 1] 1214 	tnz	a
      000396 27 05            [ 1] 1215 	jreq	00137$
      000398                       1216 00136$:
      000398 08 01            [ 1] 1217 	sll	(1, sp)
      00039A 4A               [ 1] 1218 	dec	a
      00039B 26 FB            [ 1] 1219 	jrne	00136$
      00039D                       1220 00137$:
      00039D 84               [ 1] 1221 	pop	a
                                   1222 ; genCast
                                   1223 ; genAssign
                                   1224 ; genAnd
      00039E 14 01            [ 1] 1225 	and	a, (0x01, sp)
                                   1226 ; genAssign
                                   1227 ; genGoto
      0003A0 CCr03rA8         [ 2] 1228 	jp	00109$
                                   1229 ; genLabel
      0003A3                       1230 00105$:
                                   1231 ;	./STM8S_StdPeriph_Driver/src/stm8s_adc1.c: 555: flagstatus = (uint8_t)(ADC1->CSR & Flag);
                                   1232 ; genPointerGet
      0003A3 C6 54 00         [ 1] 1233 	ld	a, 0x5400
                                   1234 ; genAnd
      0003A6 14 07            [ 1] 1235 	and	a, (0x07, sp)
                                   1236 ; genAssign
                                   1237 ; genLabel
      0003A8                       1238 00109$:
                                   1239 ;	./STM8S_StdPeriph_Driver/src/stm8s_adc1.c: 557: return ((FlagStatus)flagstatus);
                                   1240 ; genReturn
                                   1241 ; genLabel
      0003A8                       1242 00110$:
                                   1243 ;	./STM8S_StdPeriph_Driver/src/stm8s_adc1.c: 559: }
                                   1244 ; genEndFunction
      0003A8 5B 04            [ 2] 1245 	addw	sp, #4
      0003AA 81               [ 4] 1246 	ret
                                   1247 ;	./STM8S_StdPeriph_Driver/src/stm8s_adc1.c: 567: void ADC1_ClearFlag(ADC1_Flag_TypeDef Flag)
                                   1248 ; genLabel
                                   1249 ;	-----------------------------------------
                                   1250 ;	 function ADC1_ClearFlag
                                   1251 ;	-----------------------------------------
                                   1252 ;	Register assignment might be sub-optimal.
                                   1253 ;	Stack space usage: 5 bytes.
      0003AB                       1254 _ADC1_ClearFlag:
      0003AB 52 05            [ 2] 1255 	sub	sp, #5
                                   1256 ;	./STM8S_StdPeriph_Driver/src/stm8s_adc1.c: 574: if ((Flag & 0x0F) == 0x01)
                                   1257 ; genCast
                                   1258 ; genAssign
      0003AD 7B 08            [ 1] 1259 	ld	a, (0x08, sp)
      0003AF 0F 04            [ 1] 1260 	clr	(0x04, sp)
                                   1261 ; genAnd
      0003B1 88               [ 1] 1262 	push	a
      0003B2 A4 0F            [ 1] 1263 	and	a, #0x0f
      0003B4 97               [ 1] 1264 	ld	xl, a
      0003B5 4F               [ 1] 1265 	clr	a
      0003B6 95               [ 1] 1266 	ld	xh, a
      0003B7 84               [ 1] 1267 	pop	a
                                   1268 ; genCmpEQorNE
      0003B8 5A               [ 2] 1269 	decw	x
      0003B9 26 03            [ 1] 1270 	jrne	00128$
      0003BB CCr03rC1         [ 2] 1271 	jp	00129$
      0003BE                       1272 00128$:
      0003BE CCr03rCC         [ 2] 1273 	jp	00108$
      0003C1                       1274 00129$:
                                   1275 ; skipping generated iCode
                                   1276 ;	./STM8S_StdPeriph_Driver/src/stm8s_adc1.c: 577: ADC1->CR3 &= (uint8_t)(~ADC1_CR3_OVR);
                                   1277 ; genPointerGet
      0003C1 C6 54 03         [ 1] 1278 	ld	a, 0x5403
                                   1279 ; genAnd
      0003C4 A4 BF            [ 1] 1280 	and	a, #0xbf
                                   1281 ; genPointerSet
      0003C6 C7 54 03         [ 1] 1282 	ld	0x5403, a
                                   1283 ; genGoto
      0003C9 CCr04r2F         [ 2] 1284 	jp	00110$
                                   1285 ; genLabel
      0003CC                       1286 00108$:
                                   1287 ;	./STM8S_StdPeriph_Driver/src/stm8s_adc1.c: 579: else if ((Flag & 0xF0) == 0x10)
                                   1288 ; genAnd
      0003CC A4 F0            [ 1] 1289 	and	a, #0xf0
      0003CE 97               [ 1] 1290 	ld	xl, a
      0003CF 4F               [ 1] 1291 	clr	a
                                   1292 ; genCmpEQorNE
      0003D0 95               [ 1] 1293 	ld	xh, a
      0003D1 A3 00 10         [ 2] 1294 	cpw	x, #0x0010
      0003D4 26 03            [ 1] 1295 	jrne	00131$
      0003D6 CCr03rDC         [ 2] 1296 	jp	00132$
      0003D9                       1297 00131$:
      0003D9 CCr04r22         [ 2] 1298 	jp	00105$
      0003DC                       1299 00132$:
                                   1300 ; skipping generated iCode
                                   1301 ;	./STM8S_StdPeriph_Driver/src/stm8s_adc1.c: 582: temp = (uint8_t)(Flag & (uint8_t)0x0F);
                                   1302 ; genAnd
      0003DC 7B 08            [ 1] 1303 	ld	a, (0x08, sp)
      0003DE A4 0F            [ 1] 1304 	and	a, #0x0f
      0003E0 97               [ 1] 1305 	ld	xl, a
                                   1306 ;	./STM8S_StdPeriph_Driver/src/stm8s_adc1.c: 583: if (temp < 8)
                                   1307 ; genCmp
                                   1308 ; genCmpTop
      0003E1 9F               [ 1] 1309 	ld	a, xl
      0003E2 A1 08            [ 1] 1310 	cp	a, #0x08
      0003E4 25 03            [ 1] 1311 	jrc	00133$
      0003E6 CCr04r04         [ 2] 1312 	jp	00102$
      0003E9                       1313 00133$:
                                   1314 ; skipping generated iCode
                                   1315 ;	./STM8S_StdPeriph_Driver/src/stm8s_adc1.c: 585: ADC1->AWSRL &= (uint8_t)~(uint8_t)((uint8_t)1 << temp);
                                   1316 ; genPointerGet
      0003E9 C6 54 0D         [ 1] 1317 	ld	a, 0x540d
      0003EC 6B 03            [ 1] 1318 	ld	(0x03, sp), a
                                   1319 ; genLeftShift
      0003EE A6 01            [ 1] 1320 	ld	a, #0x01
      0003F0 88               [ 1] 1321 	push	a
      0003F1 9F               [ 1] 1322 	ld	a, xl
      0003F2 4D               [ 1] 1323 	tnz	a
      0003F3 27 05            [ 1] 1324 	jreq	00135$
      0003F5                       1325 00134$:
      0003F5 08 01            [ 1] 1326 	sll	(1, sp)
      0003F7 4A               [ 1] 1327 	dec	a
      0003F8 26 FB            [ 1] 1328 	jrne	00134$
      0003FA                       1329 00135$:
      0003FA 84               [ 1] 1330 	pop	a
                                   1331 ; genCpl
      0003FB 43               [ 1] 1332 	cpl	a
                                   1333 ; genAnd
      0003FC 14 03            [ 1] 1334 	and	a, (0x03, sp)
                                   1335 ; genPointerSet
      0003FE C7 54 0D         [ 1] 1336 	ld	0x540d, a
                                   1337 ; genGoto
      000401 CCr04r2F         [ 2] 1338 	jp	00110$
                                   1339 ; genLabel
      000404                       1340 00102$:
                                   1341 ;	./STM8S_StdPeriph_Driver/src/stm8s_adc1.c: 589: ADC1->AWSRH &= (uint8_t)~(uint8_t)((uint8_t)1 << (temp - 8));
                                   1342 ; genPointerGet
      000404 C6 54 0C         [ 1] 1343 	ld	a, 0x540c
      000407 6B 02            [ 1] 1344 	ld	(0x02, sp), a
                                   1345 ; genCast
                                   1346 ; genAssign
                                   1347 ; genMinus
      000409 1D 00 08         [ 2] 1348 	subw	x, #8
                                   1349 ; genLeftShift
      00040C A6 01            [ 1] 1350 	ld	a, #0x01
      00040E 88               [ 1] 1351 	push	a
      00040F 9F               [ 1] 1352 	ld	a, xl
      000410 4D               [ 1] 1353 	tnz	a
      000411 27 05            [ 1] 1354 	jreq	00137$
      000413                       1355 00136$:
      000413 08 01            [ 1] 1356 	sll	(1, sp)
      000415 4A               [ 1] 1357 	dec	a
      000416 26 FB            [ 1] 1358 	jrne	00136$
      000418                       1359 00137$:
      000418 84               [ 1] 1360 	pop	a
                                   1361 ; genCast
                                   1362 ; genAssign
                                   1363 ; genCpl
      000419 43               [ 1] 1364 	cpl	a
                                   1365 ; genAnd
      00041A 14 02            [ 1] 1366 	and	a, (0x02, sp)
                                   1367 ; genPointerSet
      00041C C7 54 0C         [ 1] 1368 	ld	0x540c, a
                                   1369 ; genGoto
      00041F CCr04r2F         [ 2] 1370 	jp	00110$
                                   1371 ; genLabel
      000422                       1372 00105$:
                                   1373 ;	./STM8S_StdPeriph_Driver/src/stm8s_adc1.c: 594: ADC1->CSR &= (uint8_t) (~Flag);
                                   1374 ; genPointerGet
      000422 C6 54 00         [ 1] 1375 	ld	a, 0x5400
      000425 6B 01            [ 1] 1376 	ld	(0x01, sp), a
                                   1377 ; genCpl
      000427 7B 08            [ 1] 1378 	ld	a, (0x08, sp)
      000429 43               [ 1] 1379 	cpl	a
                                   1380 ; genAnd
      00042A 14 01            [ 1] 1381 	and	a, (0x01, sp)
                                   1382 ; genPointerSet
      00042C C7 54 00         [ 1] 1383 	ld	0x5400, a
                                   1384 ; genLabel
      00042F                       1385 00110$:
                                   1386 ;	./STM8S_StdPeriph_Driver/src/stm8s_adc1.c: 596: }
                                   1387 ; genEndFunction
      00042F 5B 05            [ 2] 1388 	addw	sp, #5
      000431 81               [ 4] 1389 	ret
                                   1390 ;	./STM8S_StdPeriph_Driver/src/stm8s_adc1.c: 616: ITStatus ADC1_GetITStatus(ADC1_IT_TypeDef ITPendingBit)
                                   1391 ; genLabel
                                   1392 ;	-----------------------------------------
                                   1393 ;	 function ADC1_GetITStatus
                                   1394 ;	-----------------------------------------
                                   1395 ;	Register assignment might be sub-optimal.
                                   1396 ;	Stack space usage: 3 bytes.
      000432                       1397 _ADC1_GetITStatus:
      000432 52 03            [ 2] 1398 	sub	sp, #3
                                   1399 ;	./STM8S_StdPeriph_Driver/src/stm8s_adc1.c: 624: if (((uint16_t)ITPendingBit & 0xF0) == 0x10)
                                   1400 ; genAnd
      000434 7B 07            [ 1] 1401 	ld	a, (0x07, sp)
      000436 A4 F0            [ 1] 1402 	and	a, #0xf0
      000438 97               [ 1] 1403 	ld	xl, a
      000439 4F               [ 1] 1404 	clr	a
      00043A 95               [ 1] 1405 	ld	xh, a
                                   1406 ;	./STM8S_StdPeriph_Driver/src/stm8s_adc1.c: 627: temp = (uint8_t)((uint16_t)ITPendingBit & 0x0F);
                                   1407 ; genCast
                                   1408 ; genAssign
      00043B 7B 07            [ 1] 1409 	ld	a, (0x07, sp)
                                   1410 ;	./STM8S_StdPeriph_Driver/src/stm8s_adc1.c: 624: if (((uint16_t)ITPendingBit & 0xF0) == 0x10)
                                   1411 ; genCmpEQorNE
      00043D A3 00 10         [ 2] 1412 	cpw	x, #0x0010
      000440 26 03            [ 1] 1413 	jrne	00120$
      000442 CCr04r48         [ 2] 1414 	jp	00121$
      000445                       1415 00120$:
      000445 CCr04r84         [ 2] 1416 	jp	00105$
      000448                       1417 00121$:
                                   1418 ; skipping generated iCode
                                   1419 ;	./STM8S_StdPeriph_Driver/src/stm8s_adc1.c: 627: temp = (uint8_t)((uint16_t)ITPendingBit & 0x0F);
                                   1420 ; genAnd
      000448 A4 0F            [ 1] 1421 	and	a, #0x0f
      00044A 97               [ 1] 1422 	ld	xl, a
                                   1423 ;	./STM8S_StdPeriph_Driver/src/stm8s_adc1.c: 628: if (temp < 8)
                                   1424 ; genCmp
                                   1425 ; genCmpTop
      00044B 9F               [ 1] 1426 	ld	a, xl
      00044C A1 08            [ 1] 1427 	cp	a, #0x08
      00044E 25 03            [ 1] 1428 	jrc	00122$
      000450 CCr04r6A         [ 2] 1429 	jp	00102$
      000453                       1430 00122$:
                                   1431 ; skipping generated iCode
                                   1432 ;	./STM8S_StdPeriph_Driver/src/stm8s_adc1.c: 630: itstatus = (ITStatus)(ADC1->AWSRL & (uint8_t)((uint8_t)1 << temp));
                                   1433 ; genPointerGet
      000453 C6 54 0D         [ 1] 1434 	ld	a, 0x540d
                                   1435 ; genLeftShift
      000456 88               [ 1] 1436 	push	a
      000457 A6 01            [ 1] 1437 	ld	a, #0x01
      000459 6B 04            [ 1] 1438 	ld	(0x04, sp), a
      00045B 9F               [ 1] 1439 	ld	a, xl
      00045C 4D               [ 1] 1440 	tnz	a
      00045D 27 05            [ 1] 1441 	jreq	00124$
      00045F                       1442 00123$:
      00045F 08 04            [ 1] 1443 	sll	(0x04, sp)
      000461 4A               [ 1] 1444 	dec	a
      000462 26 FB            [ 1] 1445 	jrne	00123$
      000464                       1446 00124$:
      000464 84               [ 1] 1447 	pop	a
                                   1448 ; genAnd
      000465 14 03            [ 1] 1449 	and	a, (0x03, sp)
                                   1450 ; genAssign
                                   1451 ; genGoto
      000467 CCr04r8E         [ 2] 1452 	jp	00106$
                                   1453 ; genLabel
      00046A                       1454 00102$:
                                   1455 ;	./STM8S_StdPeriph_Driver/src/stm8s_adc1.c: 634: itstatus = (ITStatus)(ADC1->AWSRH & (uint8_t)((uint8_t)1 << (temp - 8)));
                                   1456 ; genPointerGet
      00046A C6 54 0C         [ 1] 1457 	ld	a, 0x540c
      00046D 6B 02            [ 1] 1458 	ld	(0x02, sp), a
                                   1459 ; genCast
                                   1460 ; genAssign
                                   1461 ; genMinus
      00046F 1D 00 08         [ 2] 1462 	subw	x, #8
                                   1463 ; genLeftShift
      000472 A6 01            [ 1] 1464 	ld	a, #0x01
      000474 88               [ 1] 1465 	push	a
      000475 9F               [ 1] 1466 	ld	a, xl
      000476 4D               [ 1] 1467 	tnz	a
      000477 27 05            [ 1] 1468 	jreq	00126$
      000479                       1469 00125$:
      000479 08 01            [ 1] 1470 	sll	(1, sp)
      00047B 4A               [ 1] 1471 	dec	a
      00047C 26 FB            [ 1] 1472 	jrne	00125$
      00047E                       1473 00126$:
      00047E 84               [ 1] 1474 	pop	a
                                   1475 ; genCast
                                   1476 ; genAssign
                                   1477 ; genAnd
      00047F 14 02            [ 1] 1478 	and	a, (0x02, sp)
                                   1479 ; genAssign
                                   1480 ; genGoto
      000481 CCr04r8E         [ 2] 1481 	jp	00106$
                                   1482 ; genLabel
      000484                       1483 00105$:
                                   1484 ;	./STM8S_StdPeriph_Driver/src/stm8s_adc1.c: 639: itstatus = (ITStatus)(ADC1->CSR & (uint8_t)ITPendingBit);
                                   1485 ; genPointerGet
      000484 AE 54 00         [ 2] 1486 	ldw	x, #0x5400
      000487 88               [ 1] 1487 	push	a
      000488 F6               [ 1] 1488 	ld	a, (x)
      000489 6B 02            [ 1] 1489 	ld	(0x02, sp), a
      00048B 84               [ 1] 1490 	pop	a
                                   1491 ; genAnd
      00048C 14 01            [ 1] 1492 	and	a, (0x01, sp)
                                   1493 ; genAssign
                                   1494 ; genLabel
      00048E                       1495 00106$:
                                   1496 ;	./STM8S_StdPeriph_Driver/src/stm8s_adc1.c: 641: return ((ITStatus)itstatus);
                                   1497 ; genReturn
                                   1498 ; genLabel
      00048E                       1499 00107$:
                                   1500 ;	./STM8S_StdPeriph_Driver/src/stm8s_adc1.c: 642: }
                                   1501 ; genEndFunction
      00048E 5B 03            [ 2] 1502 	addw	sp, #3
      000490 81               [ 4] 1503 	ret
                                   1504 ;	./STM8S_StdPeriph_Driver/src/stm8s_adc1.c: 662: void ADC1_ClearITPendingBit(ADC1_IT_TypeDef ITPendingBit)
                                   1505 ; genLabel
                                   1506 ;	-----------------------------------------
                                   1507 ;	 function ADC1_ClearITPendingBit
                                   1508 ;	-----------------------------------------
                                   1509 ;	Register assignment might be sub-optimal.
                                   1510 ;	Stack space usage: 2 bytes.
      000491                       1511 _ADC1_ClearITPendingBit:
      000491 89               [ 2] 1512 	pushw	x
                                   1513 ;	./STM8S_StdPeriph_Driver/src/stm8s_adc1.c: 669: if (((uint16_t)ITPendingBit & 0xF0) == 0x10)
                                   1514 ; genAnd
      000492 7B 06            [ 1] 1515 	ld	a, (0x06, sp)
      000494 A4 F0            [ 1] 1516 	and	a, #0xf0
      000496 97               [ 1] 1517 	ld	xl, a
      000497 4F               [ 1] 1518 	clr	a
                                   1519 ; genCmpEQorNE
      000498 95               [ 1] 1520 	ld	xh, a
      000499 A3 00 10         [ 2] 1521 	cpw	x, #0x0010
      00049C 26 03            [ 1] 1522 	jrne	00120$
      00049E CCr04rA4         [ 2] 1523 	jp	00121$
      0004A1                       1524 00120$:
      0004A1 CCr04rEA         [ 2] 1525 	jp	00105$
      0004A4                       1526 00121$:
                                   1527 ; skipping generated iCode
                                   1528 ;	./STM8S_StdPeriph_Driver/src/stm8s_adc1.c: 672: temp = (uint8_t)((uint16_t)ITPendingBit & 0x0F);
                                   1529 ; genCast
                                   1530 ; genAssign
      0004A4 7B 06            [ 1] 1531 	ld	a, (0x06, sp)
                                   1532 ; genAnd
      0004A6 A4 0F            [ 1] 1533 	and	a, #0x0f
      0004A8 97               [ 1] 1534 	ld	xl, a
                                   1535 ;	./STM8S_StdPeriph_Driver/src/stm8s_adc1.c: 673: if (temp < 8)
                                   1536 ; genCmp
                                   1537 ; genCmpTop
      0004A9 9F               [ 1] 1538 	ld	a, xl
      0004AA A1 08            [ 1] 1539 	cp	a, #0x08
      0004AC 25 03            [ 1] 1540 	jrc	00122$
      0004AE CCr04rCC         [ 2] 1541 	jp	00102$
      0004B1                       1542 00122$:
                                   1543 ; skipping generated iCode
                                   1544 ;	./STM8S_StdPeriph_Driver/src/stm8s_adc1.c: 675: ADC1->AWSRL &= (uint8_t)~(uint8_t)((uint8_t)1 << temp);
                                   1545 ; genPointerGet
      0004B1 C6 54 0D         [ 1] 1546 	ld	a, 0x540d
      0004B4 6B 02            [ 1] 1547 	ld	(0x02, sp), a
                                   1548 ; genLeftShift
      0004B6 A6 01            [ 1] 1549 	ld	a, #0x01
      0004B8 88               [ 1] 1550 	push	a
      0004B9 9F               [ 1] 1551 	ld	a, xl
      0004BA 4D               [ 1] 1552 	tnz	a
      0004BB 27 05            [ 1] 1553 	jreq	00124$
      0004BD                       1554 00123$:
      0004BD 08 01            [ 1] 1555 	sll	(1, sp)
      0004BF 4A               [ 1] 1556 	dec	a
      0004C0 26 FB            [ 1] 1557 	jrne	00123$
      0004C2                       1558 00124$:
      0004C2 84               [ 1] 1559 	pop	a
                                   1560 ; genCpl
      0004C3 43               [ 1] 1561 	cpl	a
                                   1562 ; genAnd
      0004C4 14 02            [ 1] 1563 	and	a, (0x02, sp)
                                   1564 ; genPointerSet
      0004C6 C7 54 0D         [ 1] 1565 	ld	0x540d, a
                                   1566 ; genGoto
      0004C9 CCr04rF7         [ 2] 1567 	jp	00107$
                                   1568 ; genLabel
      0004CC                       1569 00102$:
                                   1570 ;	./STM8S_StdPeriph_Driver/src/stm8s_adc1.c: 679: ADC1->AWSRH &= (uint8_t)~(uint8_t)((uint8_t)1 << (temp - 8));
                                   1571 ; genPointerGet
      0004CC C6 54 0C         [ 1] 1572 	ld	a, 0x540c
      0004CF 6B 01            [ 1] 1573 	ld	(0x01, sp), a
                                   1574 ; genCast
                                   1575 ; genAssign
                                   1576 ; genMinus
      0004D1 1D 00 08         [ 2] 1577 	subw	x, #8
                                   1578 ; genLeftShift
      0004D4 A6 01            [ 1] 1579 	ld	a, #0x01
      0004D6 88               [ 1] 1580 	push	a
      0004D7 9F               [ 1] 1581 	ld	a, xl
      0004D8 4D               [ 1] 1582 	tnz	a
      0004D9 27 05            [ 1] 1583 	jreq	00126$
      0004DB                       1584 00125$:
      0004DB 08 01            [ 1] 1585 	sll	(1, sp)
      0004DD 4A               [ 1] 1586 	dec	a
      0004DE 26 FB            [ 1] 1587 	jrne	00125$
      0004E0                       1588 00126$:
      0004E0 84               [ 1] 1589 	pop	a
                                   1590 ; genCast
                                   1591 ; genAssign
                                   1592 ; genCpl
      0004E1 43               [ 1] 1593 	cpl	a
                                   1594 ; genAnd
      0004E2 14 01            [ 1] 1595 	and	a, (0x01, sp)
                                   1596 ; genPointerSet
      0004E4 C7 54 0C         [ 1] 1597 	ld	0x540c, a
                                   1598 ; genGoto
      0004E7 CCr04rF7         [ 2] 1599 	jp	00107$
                                   1600 ; genLabel
      0004EA                       1601 00105$:
                                   1602 ;	./STM8S_StdPeriph_Driver/src/stm8s_adc1.c: 684: ADC1->CSR &= (uint8_t)((uint16_t)~(uint16_t)ITPendingBit);
                                   1603 ; genPointerGet
      0004EA C6 54 00         [ 1] 1604 	ld	a, 0x5400
                                   1605 ; genCpl
      0004ED 1E 05            [ 2] 1606 	ldw	x, (0x05, sp)
      0004EF 53               [ 2] 1607 	cplw	x
                                   1608 ; genCast
                                   1609 ; genAssign
                                   1610 ; genAnd
      0004F0 89               [ 2] 1611 	pushw	x
      0004F1 14 02            [ 1] 1612 	and	a, (2, sp)
      0004F3 85               [ 2] 1613 	popw	x
                                   1614 ; genPointerSet
      0004F4 C7 54 00         [ 1] 1615 	ld	0x5400, a
                                   1616 ; genLabel
      0004F7                       1617 00107$:
                                   1618 ;	./STM8S_StdPeriph_Driver/src/stm8s_adc1.c: 686: }
                                   1619 ; genEndFunction
      0004F7 85               [ 2] 1620 	popw	x
      0004F8 81               [ 4] 1621 	ret
                                   1622 	.area CODE
                                   1623 	.area CONST
                                   1624 	.area INITIALIZER
                                   1625 	.area CABS (ABS)
